=== SOURCE_C_START ===
typedef unsigned char   undefined;

typedef unsigned char    byte;
typedef unsigned char    dwfenc;
typedef unsigned int    dword;
typedef unsigned long    qword;
typedef unsigned long    ulong;
typedef unsigned char    undefined1;
typedef unsigned int    undefined4;
typedef unsigned long    undefined8;
typedef unsigned short    word;
typedef struct eh_frame_hdr eh_frame_hdr, *Peh_frame_hdr;

struct eh_frame_hdr {
    byte eh_frame_hdr_version; // Exception Handler Frame Header Version
    dwfenc eh_frame_pointer_encoding; // Exception Handler Frame Pointer Encoding
    dwfenc eh_frame_desc_entry_count_encoding; // Encoding of # of Exception Handler FDEs
    dwfenc eh_frame_table_encoding; // Exception Handler Table Encoding
};

typedef struct NoteGnuPropertyElement_4 NoteGnuPropertyElement_4, *PNoteGnuPropertyElement_4;

struct NoteGnuPropertyElement_4 {
    dword prType;
    dword prDatasz;
    byte data[4];
};

typedef struct fde_table_entry fde_table_entry, *Pfde_table_entry;

struct fde_table_entry {
    dword initial_loc; // Initial Location
    dword data_loc; // Data location
};

typedef ulong size_t;

typedef enum Elf64_DynTag {
    DT_NULL=0,
    DT_NEEDED=1,
    DT_PLTRELSZ=2,
    DT_PLTGOT=3,
    DT_HASH=4,
    DT_STRTAB=5,
    DT_SYMTAB=6,
    DT_RELA=7,
    DT_RELASZ=8,
    DT_RELAENT=9,
    DT_STRSZ=10,
    DT_SYMENT=11,
    DT_INIT=12,
    DT_FINI=13,
    DT_SONAME=14,
    DT_RPATH=15,
    DT_SYMBOLIC=16,
    DT_REL=17,
    DT_RELSZ=18,
    DT_RELENT=19,
    DT_PLTREL=20,
    DT_DEBUG=21,
    DT_TEXTREL=22,
    DT_JMPREL=23,
    DT_BIND_NOW=24,
    DT_INIT_ARRAY=25,
    DT_FINI_ARRAY=26,
    DT_INIT_ARRAYSZ=27,
    DT_FINI_ARRAYSZ=28,
    DT_RUNPATH=29,
    DT_FLAGS=30,
    DT_PREINIT_ARRAY=32,
    DT_PREINIT_ARRAYSZ=33,
    DT_RELRSZ=35,
    DT_RELR=36,
    DT_RELRENT=37,
    DT_ANDROID_REL=1610612751,
    DT_ANDROID_RELSZ=1610612752,
    DT_ANDROID_RELA=1610612753,
    DT_ANDROID_RELASZ=1610612754,
    DT_ANDROID_RELR=1879040000,
    DT_ANDROID_RELRSZ=1879040001,
    DT_ANDROID_RELRENT=1879040003,
    DT_GNU_PRELINKED=1879047669,
    DT_GNU_CONFLICTSZ=1879047670,
    DT_GNU_LIBLISTSZ=1879047671,
    DT_CHECKSUM=1879047672,
    DT_PLTPADSZ=1879047673,
    DT_MOVEENT=1879047674,
    DT_MOVESZ=1879047675,
    DT_FEATURE_1=1879047676,
    DT_POSFLAG_1=1879047677,
    DT_SYMINSZ=1879047678,
    DT_SYMINENT=1879047679,
    DT_GNU_XHASH=1879047924,
    DT_GNU_HASH=1879047925,
    DT_TLSDESC_PLT=1879047926,
    DT_TLSDESC_GOT=1879047927,
    DT_GNU_CONFLICT=1879047928,
    DT_GNU_LIBLIST=1879047929,
    DT_CONFIG=1879047930,
    DT_DEPAUDIT=1879047931,
    DT_AUDIT=1879047932,
    DT_PLTPAD=1879047933,
    DT_MOVETAB=1879047934,
    DT_SYMINFO=1879047935,
    DT_VERSYM=1879048176,
    DT_RELACOUNT=1879048185,
    DT_RELCOUNT=1879048186,
    DT_FLAGS_1=1879048187,
    DT_VERDEF=1879048188,
    DT_VERDEFNUM=1879048189,
    DT_VERNEED=1879048190,
    DT_VERNEEDNUM=1879048191,
    DT_AUXILIARY=2147483645,
    DT_FILTER=2147483647
} Elf64_DynTag;

typedef enum Elf_ProgramHeaderType {
    PT_NULL=0,
    PT_LOAD=1,
    PT_DYNAMIC=2,
    PT_INTERP=3,
    PT_NOTE=4,
    PT_SHLIB=5,
    PT_PHDR=6,
    PT_TLS=7,
    PT_GNU_EH_FRAME=1685382480,
    PT_GNU_STACK=1685382481,
    PT_GNU_RELRO=1685382482
} Elf_ProgramHeaderType;

typedef struct Elf64_Dyn Elf64_Dyn, *PElf64_Dyn;

struct Elf64_Dyn {
    enum Elf64_DynTag d_tag;
    qword d_val;
};

typedef struct Elf64_Phdr Elf64_Phdr, *PElf64_Phdr;

struct Elf64_Phdr {
    enum Elf_ProgramHeaderType p_type;
    dword p_flags;
    qword p_offset;
    qword p_vaddr;
    qword p_paddr;
    qword p_filesz;
    qword p_memsz;
    qword p_align;
};

typedef struct Elf64_Shdr Elf64_Shdr, *PElf64_Shdr;

typedef enum Elf_SectionHeaderType {
    SHT_NULL=0,
    SHT_PROGBITS=1,
    SHT_SYMTAB=2,
    SHT_STRTAB=3,
    SHT_RELA=4,
    SHT_HASH=5,
    SHT_DYNAMIC=6,
    SHT_NOTE=7,
    SHT_NOBITS=8,
    SHT_REL=9,
    SHT_SHLIB=10,
    SHT_DYNSYM=11,
    SHT_INIT_ARRAY=14,
    SHT_FINI_ARRAY=15,
    SHT_PREINIT_ARRAY=16,
    SHT_GROUP=17,
    SHT_SYMTAB_SHNDX=18,
    SHT_ANDROID_REL=1610612737,
    SHT_ANDROID_RELA=1610612738,
    SHT_GNU_ATTRIBUTES=1879048181,
    SHT_GNU_HASH=1879048182,
    SHT_GNU_LIBLIST=1879048183,
    SHT_CHECKSUM=1879048184,
    SHT_SUNW_move=1879048186,
    SHT_SUNW_COMDAT=1879048187,
    SHT_SUNW_syminfo=1879048188,
    SHT_GNU_verdef=1879048189,
    SHT_GNU_verneed=1879048190,
    SHT_GNU_versym=1879048191
} Elf_SectionHeaderType;

struct Elf64_Shdr {
    dword sh_name;
    enum Elf_SectionHeaderType sh_type;
    qword sh_flags;
    qword sh_addr;
    qword sh_offset;
    qword sh_size;
    dword sh_link;
    dword sh_info;
    qword sh_addralign;
    qword sh_entsize;
};

typedef struct NoteAbiTag NoteAbiTag, *PNoteAbiTag;

struct NoteAbiTag {
    dword namesz; // Length of name field
    dword descsz; // Length of description field
    dword type; // Vendor specific type
    char name[4]; // Vendor name
    dword abiType; // 0 == Linux
    dword requiredKernelVersion[3]; // Major.minor.patch
};

typedef struct Elf64_Rela Elf64_Rela, *PElf64_Rela;

struct Elf64_Rela {
    qword r_offset; // location to apply the relocation action
    qword r_info; // the symbol table index and the type of relocation
    qword r_addend; // a constant addend used to compute the relocatable field value
};

typedef struct Elf64_Sym Elf64_Sym, *PElf64_Sym;

struct Elf64_Sym {
    dword st_name;
    byte st_info;
    byte st_other;
    word st_shndx;
    qword st_value;
    qword st_size;
};

typedef struct GnuBuildId GnuBuildId, *PGnuBuildId;

struct GnuBuildId {
    dword namesz; // Length of name field
    dword descsz; // Length of description field
    dword type; // Vendor specific type
    char name[4]; // Vendor name
    byte hash[20];
};

typedef struct NoteGnuProperty_4 NoteGnuProperty_4, *PNoteGnuProperty_4;

struct NoteGnuProperty_4 {
    dword namesz; // Length of name field
    dword descsz; // Length of description field
    dword type; // Vendor specific type
    char name[4]; // Vendor name
};

typedef struct Elf64_Ehdr Elf64_Ehdr, *PElf64_Ehdr;

struct Elf64_Ehdr {
    byte e_ident_magic_num;
    char e_ident_magic_str[3];
    byte e_ident_class;
    byte e_ident_data;
    byte e_ident_version;
    byte e_ident_osabi;
    byte e_ident_abiversion;
    byte e_ident_pad[7];
    word e_type;
    word e_machine;
    dword e_version;
    qword e_entry;
    qword e_phoff;
    qword e_shoff;
    dword e_flags;
    word e_ehsize;
    word e_phentsize;
    word e_phnum;
    word e_shentsize;
    word e_shnum;
    word e_shstrndx;
};

typedef struct evp_pkey_ctx_st evp_pkey_ctx_st, *Pevp_pkey_ctx_st;

struct evp_pkey_ctx_st {
};

typedef struct evp_pkey_ctx_st EVP_PKEY_CTX;



undefined main;
pointer __dso_handle;
undefined1 completed.0;
undefined DAT_001021ee;
undefined1[449] target;

int _init(EVP_PKEY_CTX *ctx)

{
  int iVar1;
  
  iVar1 = __gmon_start__();
  return iVar1;
}



void FUN_00101020(void)

{
  (*(code *)(undefined *)0x0)();
  return;
}



void FUN_00101080(void)

{
  __cxa_finalize();
  return;
}



// WARNING: Unknown calling convention -- yet parameter storage is locked

int puts(char *__s)

{
  int iVar1;
  
  iVar1 = puts(__s);
  return iVar1;
}



// WARNING: Unknown calling convention -- yet parameter storage is locked

size_t strlen(char *__s)

{
  size_t sVar1;
  
  sVar1 = strlen(__s);
  return sVar1;
}



void __stack_chk_fail(void)

{
                    // WARNING: Subroutine does not return
  __stack_chk_fail();
}



// WARNING: Unknown calling convention -- yet parameter storage is locked

int printf(char *__format,...)

{
  int iVar1;
  
  iVar1 = printf(__format);
  return iVar1;
}



void __isoc99_scanf(void)

{
  __isoc99_scanf();
  return;
}



void processEntry _start(undefined8 param_1,undefined8 param_2)

{
  undefined1 auStack_8 [8];
  
  __libc_start_main(main,param_2,&stack0x00000008,0,0,param_1,auStack_8);
  do {
                    // WARNING: Do nothing block with infinite loop
  } while( true );
}



// WARNING: Removing unreachable block (ram,0x00101123)
// WARNING: Removing unreachable block (ram,0x0010112f)

void deregister_tm_clones(void)

{
  return;
}



// WARNING: Removing unreachable block (ram,0x00101164)
// WARNING: Removing unreachable block (ram,0x00101170)

void register_tm_clones(void)

{
  return;
}



void __do_global_dtors_aux(void)

{
  if (completed_0 != '\0') {
    return;
  }
  FUN_00101080(__dso_handle);
  deregister_tm_clones();
  completed_0 = 1;
  return;
}



void frame_dummy(void)

{
  register_tm_clones();
  return;
}



undefined8 main(void)

{
  int iVar1;
  size_t sVar2;
  long in_FS_OFFSET;
  int local_290;
  int local_28c;
  int local_288;
  int local_284;
  uint local_280;
  char local_278 [80];
  char acStack_228 [520];
  long local_20;
  
  local_20 = *(long *)(in_FS_OFFSET + 0x28);
  printf("Enter flag: ");
  __isoc99_scanf(&DAT_001021ee,local_278);
  sVar2 = strlen(local_278);
  if (sVar2 < 0x47) {
    local_290 = 0;
    local_28c = 0;
    while( true ) {
      sVar2 = strlen(local_278);
      if (sVar2 <= (ulong)(long)local_28c) break;
      local_288 = 0;
      local_284 = 0xff;
      while (iVar1 = (local_284 + local_288) / 2, iVar1 != local_278[local_28c]) {
        if (iVar1 < local_278[local_28c]) {
          acStack_228[local_290] = '>';
          local_288 = iVar1 + 1;
          local_290 = local_290 + 1;
        }
        else {
          acStack_228[local_290] = '<';
          local_284 = iVar1 + -1;
          local_290 = local_290 + 1;
        }
      }
      acStack_228[local_290] = '=';
      local_28c = local_28c + 1;
      local_290 = local_290 + 1;
    }
    if (local_290 == 0x1c0) {
      for (local_280 = 0; local_280 < 0x1c0; local_280 = local_280 + 1) {
        if (acStack_228[(int)local_280] != target[(int)local_280]) {
          puts("Nope");
          goto LAB_001013fb;
        }
      }
      puts("Correct!");
    }
    else {
      puts("Nope");
    }
  }
  else {
    puts("Nope");
  }
LAB_001013fb:
  if (local_20 != *(long *)(in_FS_OFFSET + 0x28)) {
                    // WARNING: Subroutine does not return
    __stack_chk_fail();
  }
  return 0;
}



void _fini(void)

{
  return;
}
=== SOURCE_C_END ===

=== OBJ_DUMP_START ===

chall:	file format elf64-x86-64

Disassembly of section .interp:

0000000000000318 <.interp>:
     318: 2f                           	<unknown>
     319: 6c                           	insb	%dx, %es:(%rdi)
     31a: 69 62 36 34 2f 6c 64         	imull	$0x646c2f34, 0x36(%rdx), %esp # imm = 0x646C2F34
     321: 2d 6c 69 6e 75               	subl	$0x756e696c, %eax       # imm = 0x756E696C
     326: 78 2d                        	js	0x355 <strlen@GLIBC_2.2.5+0x355>
     328: 78 38                        	js	0x362 <strlen@GLIBC_2.2.5+0x362>
     32a: 36 2d 36 34 2e 73            	subl	$0x732e3436, %eax       # imm = 0x732E3436
     330: 6f                           	outsl	(%rsi), %dx
     331: 2e 32 00                     	xorb	%cs:(%rax), %al

Disassembly of section .note.gnu.property:

0000000000000338 <.note.gnu.property>:
     338: 04 00                        	addb	$0x0, %al
     33a: 00 00                        	addb	%al, (%rax)
     33c: 20 00                        	andb	%al, (%rax)
     33e: 00 00                        	addb	%al, (%rax)
     340: 05 00 00 00 47               	addl	$0x47000000, %eax       # imm = 0x47000000
     345: 4e 55                        	pushq	%rbp
     347: 00 02                        	addb	%al, (%rdx)
     349: 00 00                        	addb	%al, (%rax)
     34b: c0 04 00 00                  	rolb	$0x0, (%rax,%rax)
     34f: 00 03                        	addb	%al, (%rbx)
     351: 00 00                        	addb	%al, (%rax)
     353: 00 00                        	addb	%al, (%rax)
     355: 00 00                        	addb	%al, (%rax)
     357: 00 02                        	addb	%al, (%rdx)
     359: 80 00 c0                     	addb	$-0x40, (%rax)
     35c: 04 00                        	addb	$0x0, %al
     35e: 00 00                        	addb	%al, (%rax)
     360: 01 00                        	addl	%eax, (%rax)
     362: 00 00                        	addb	%al, (%rax)
     364: 00 00                        	addb	%al, (%rax)
     366: 00 00                        	addb	%al, (%rax)

Disassembly of section .note.gnu.build-id:

0000000000000368 <.note.gnu.build-id>:
     368: 04 00                        	addb	$0x0, %al
     36a: 00 00                        	addb	%al, (%rax)
     36c: 14 00                        	adcb	$0x0, %al
     36e: 00 00                        	addb	%al, (%rax)
     370: 03 00                        	addl	(%rax), %eax
     372: 00 00                        	addb	%al, (%rax)
     374: 47 4e                        	<unknown>
     376: 55                           	pushq	%rbp
     377: 00 3a                        	addb	%bh, (%rdx)
     379: 87 8b 7f cc 10 a7            	xchgl	%ecx, -0x58ef3381(%rbx)
     37f: c0 63 4d 48                  	shlb	$0x48, 0x4d(%rbx)
     383: f1                           	<unknown>
     384: 67 a3 b2 b7 bd bf            	movl	%eax, 0xbfbdb7b2
     38a: cb                           	lretl
     38b: 2f                           	<unknown>

Disassembly of section .note.ABI-tag:

000000000000038c <__abi_tag>:
     38c: 04 00                        	addb	$0x0, %al
     38e: 00 00                        	addb	%al, (%rax)
     390: 10 00                        	adcb	%al, (%rax)
     392: 00 00                        	addb	%al, (%rax)
     394: 01 00                        	addl	%eax, (%rax)
     396: 00 00                        	addb	%al, (%rax)
     398: 47 4e                        	<unknown>
     39a: 55                           	pushq	%rbp
     39b: 00 00                        	addb	%al, (%rax)
     39d: 00 00                        	addb	%al, (%rax)
     39f: 00 03                        	addb	%al, (%rbx)
     3a1: 00 00                        	addb	%al, (%rax)
     3a3: 00 02                        	addb	%al, (%rdx)
     3a5: 00 00                        	addb	%al, (%rax)
     3a7: 00 00                        	addb	%al, (%rax)
     3a9: 00 00                        	addb	%al, (%rax)
     3ab: 00                           	<unknown>

Disassembly of section .gnu.hash:

00000000000003b0 <.gnu.hash>:
     3b0: 02 00                        	addb	(%rax), %al
     3b2: 00 00                        	addb	%al, (%rax)
     3b4: 0a 00                        	orb	(%rax), %al
     3b6: 00 00                        	addb	%al, (%rax)
     3b8: 01 00                        	addl	%eax, (%rax)
     3ba: 00 00                        	addb	%al, (%rax)
     3bc: 06                           	<unknown>
     3bd: 00 00                        	addb	%al, (%rax)
     3bf: 00 00                        	addb	%al, (%rax)
     3c1: 00 81 00 00 00 00            	addb	%al, (%rcx)
     3c7: 00 0a                        	addb	%cl, (%rdx)
     3c9: 00 00                        	addb	%al, (%rax)
     3cb: 00 00                        	addb	%al, (%rax)
     3cd: 00 00                        	addb	%al, (%rax)
     3cf: 00 d1                        	addb	%dl, %cl
     3d1: 65 ce                        	<unknown>
     3d3: 6d                           	insl	%dx, %es:(%rdi)

Disassembly of section .dynsym:

00000000000003d8 <.dynsym>:
		...
     3f0: 1e                           	<unknown>
     3f1: 00 00                        	addb	%al, (%rax)
     3f3: 00 12                        	addb	%dl, (%rdx)
		...
     405: 00 00                        	addb	%al, (%rax)
     407: 00 8a 00 00 00 20            	addb	%cl, 0x20000000(%rdx)
		...
     41d: 00 00                        	addb	%al, (%rax)
     41f: 00 01                        	addb	%al, (%rcx)
     421: 00 00                        	addb	%al, (%rax)
     423: 00 12                        	addb	%dl, (%rdx)
		...
     435: 00 00                        	addb	%al, (%rax)
     437: 00 17                        	addb	%dl, (%rdi)
     439: 00 00                        	addb	%al, (%rax)
     43b: 00 12                        	addb	%dl, (%rdx)
		...
     44d: 00 00                        	addb	%al, (%rax)
     44f: 00 06                        	addb	%al, (%rsi)
     451: 00 00                        	addb	%al, (%rax)
     453: 00 12                        	addb	%dl, (%rdx)
		...
     465: 00 00                        	addb	%al, (%rax)
     467: 00 3f                        	addb	%bh, (%rdi)
     469: 00 00                        	addb	%al, (%rax)
     46b: 00 12                        	addb	%dl, (%rdx)
		...
     47d: 00 00                        	addb	%al, (%rax)
     47f: 00 a6 00 00 00 20            	addb	%ah, 0x20000000(%rsi)
		...
     495: 00 00                        	addb	%al, (%rax)
     497: 00 46 00                     	addb	%al, (%rsi)
     49a: 00 00                        	addb	%al, (%rax)
     49c: 12 00                        	adcb	(%rax), %al
		...
     4ae: 00 00                        	addb	%al, (%rax)
     4b0: b5 00                        	movb	$0x0, %ch
     4b2: 00 00                        	addb	%al, (%rax)
     4b4: 20 00                        	andb	%al, (%rax)
		...
     4c6: 00 00                        	addb	%al, (%rax)
     4c8: 30 00                        	xorb	%al, (%rax)
     4ca: 00 00                        	addb	%al, (%rax)
     4cc: 22 00                        	andb	(%rax), %al
		...
     4de: 00 00                        	addb	%al, (%rax)

Disassembly of section .dynstr:

00000000000004e0 <.dynstr>:
     4e0: 00 70 75                     	addb	%dh, 0x75(%rax)
     4e3: 74 73                        	je	0x558 <.dynstr+0x78>
     4e5: 00 5f 5f                     	addb	%bl, 0x5f(%rdi)
     4e8: 73 74                        	jae	0x55e <.dynstr+0x7e>
     4ea: 61                           	<unknown>
     4eb: 63 6b 5f                     	movslq	0x5f(%rbx), %ebp
     4ee: 63 68 6b                     	movslq	0x6b(%rax), %ebp
     4f1: 5f                           	popq	%rdi
     4f2: 66 61                        	<unknown>
     4f4: 69 6c 00 73 74 72 6c 65      	imull	$0x656c7274, 0x73(%rax,%rax), %ebp # imm = 0x656C7274
     4fc: 6e                           	outsb	(%rsi), %dx
     4fd: 00 5f 5f                     	addb	%bl, 0x5f(%rdi)
     500: 6c                           	insb	%dx, %es:(%rdi)
     501: 69 62 63 5f 73 74 61         	imull	$0x6174735f, 0x63(%rdx), %esp # imm = 0x6174735F
     508: 72 74                        	jb	0x57e <.dynstr+0x9e>
     50a: 5f                           	popq	%rdi
     50b: 6d                           	insl	%dx, %es:(%rdi)
     50c: 61                           	<unknown>
     50d: 69 6e 00 5f 5f 63 78         	imull	$0x78635f5f, (%rsi), %ebp # imm = 0x78635F5F
     514: 61                           	<unknown>
     515: 5f                           	popq	%rdi
     516: 66 69 6e 61 6c 69            	imulw	$0x696c, 0x61(%rsi), %bp # imm = 0x696C
     51c: 7a 65                        	jp	0x583 <.dynstr+0xa3>
     51e: 00 70 72                     	addb	%dh, 0x72(%rax)
     521: 69 6e 74 66 00 5f 5f         	imull	$0x5f5f0066, 0x74(%rsi), %ebp # imm = 0x5F5F0066
     528: 69 73 6f 63 39 39 5f         	imull	$0x5f393963, 0x6f(%rbx), %esi # imm = 0x5F393963
     52f: 73 63                        	jae	0x594 <.dynstr+0xb4>
     531: 61                           	<unknown>
     532: 6e                           	outsb	(%rsi), %dx
     533: 66 00 6c 69 62               	addb	%ch, 0x62(%rcx,%rbp,2)
     538: 63 2e                        	movslq	(%rsi), %ebp
     53a: 73 6f                        	jae	0x5ab <.dynstr+0xcb>
     53c: 2e 36 00 47 4c               	addb	%al, %ss:0x4c(%rdi)
     541: 49 42                        	<unknown>
     543: 43 5f                        	popq	%r15
     545: 32 2e                        	xorb	(%rsi), %ch
     547: 37                           	<unknown>
     548: 00 47 4c                     	addb	%al, 0x4c(%rdi)
     54b: 49 42                        	<unknown>
     54d: 43 5f                        	popq	%r15
     54f: 32 2e                        	xorb	(%rsi), %ch
     551: 34 00                        	xorb	$0x0, %al
     553: 47 4c                        	<unknown>
     555: 49 42                        	<unknown>
     557: 43 5f                        	popq	%r15
     559: 32 2e                        	xorb	(%rsi), %ch
     55b: 32 2e                        	xorb	(%rsi), %ch
     55d: 35 00 47 4c 49               	xorl	$0x494c4700, %eax       # imm = 0x494C4700
     562: 42 43                        	<unknown>
     564: 5f                           	popq	%rdi
     565: 32 2e                        	xorb	(%rsi), %ch
     567: 33 34 00                     	xorl	(%rax,%rax), %esi
     56a: 5f                           	popq	%rdi
     56b: 49 54                        	pushq	%r12
     56d: 4d 5f                        	popq	%r15
     56f: 64 65 72 65                  	jb	0x5d8 <strlen@GLIBC_2.2.5+0x5d8>
     573: 67 69 73 74 65 72 54 4d      	imull	$0x4d547265, 0x74(%ebx), %esi # imm = 0x4D547265
     57b: 43 6c                        	insb	%dx, %es:(%rdi)
     57d: 6f                           	outsl	(%rsi), %dx
     57e: 6e                           	outsb	(%rsi), %dx
     57f: 65 54                        	pushq	%rsp
     581: 61                           	<unknown>
     582: 62                           	<unknown>
     583: 6c                           	insb	%dx, %es:(%rdi)
     584: 65 00 5f 5f                  	addb	%bl, %gs:0x5f(%rdi)
     588: 67 6d                        	insl	%dx, %es:(%edi)
     58a: 6f                           	outsl	(%rsi), %dx
     58b: 6e                           	outsb	(%rsi), %dx
     58c: 5f                           	popq	%rdi
     58d: 73 74                        	jae	0x603 <strlen@GLIBC_2.2.5+0x603>
     58f: 61                           	<unknown>
     590: 72 74                        	jb	0x606 <strlen@GLIBC_2.2.5+0x606>
     592: 5f                           	popq	%rdi
     593: 5f                           	popq	%rdi
     594: 00 5f 49                     	addb	%bl, 0x49(%rdi)
     597: 54                           	pushq	%rsp
     598: 4d 5f                        	popq	%r15
     59a: 72 65                        	jb	0x601 <strlen@GLIBC_2.2.5+0x601>
     59c: 67 69 73 74 65 72 54 4d      	imull	$0x4d547265, 0x74(%ebx), %esi # imm = 0x4D547265
     5a4: 43 6c                        	insb	%dx, %es:(%rdi)
     5a6: 6f                           	outsl	(%rsi), %dx
     5a7: 6e                           	outsb	(%rsi), %dx
     5a8: 65 54                        	pushq	%rsp
     5aa: 61                           	<unknown>
     5ab: 62                           	<unknown>
     5ac: 6c                           	insb	%dx, %es:(%rdi)
     5ad: 65 00                        	<unknown>

Disassembly of section .gnu.version:

00000000000005b0 <.gnu.version>:
     5b0: 00 00                        	addb	%al, (%rax)
     5b2: 02 00                        	addb	(%rax), %al
     5b4: 01 00                        	addl	%eax, (%rax)
     5b6: 03 00                        	addl	(%rax), %eax
     5b8: 03 00                        	addl	(%rax), %eax
     5ba: 04 00                        	addb	$0x0, %al
     5bc: 03 00                        	addl	(%rax), %eax
     5be: 01 00                        	addl	%eax, (%rax)
     5c0: 05 00 01 00 03               	addl	$0x3000100, %eax        # imm = 0x3000100
     5c5: 00                           	<unknown>

Disassembly of section .gnu.version_r:

00000000000005c8 <.gnu.version_r>:
     5c8: 01 00                        	addl	%eax, (%rax)
     5ca: 04 00                        	addb	$0x0, %al
     5cc: 55                           	pushq	%rbp
     5cd: 00 00                        	addb	%al, (%rax)
     5cf: 00 10                        	addb	%dl, (%rax)
     5d1: 00 00                        	addb	%al, (%rax)
     5d3: 00 00                        	addb	%al, (%rax)
     5d5: 00 00                        	addb	%al, (%rax)
     5d7: 00 17                        	addb	%dl, (%rdi)
     5d9: 69 69 0d 00 00 05 00         	imull	$0x50000, 0xd(%rcx), %ebp # imm = 0x50000
     5e0: 5f                           	popq	%rdi
     5e1: 00 00                        	addb	%al, (%rax)
     5e3: 00 10                        	addb	%dl, (%rax)
     5e5: 00 00                        	addb	%al, (%rax)
     5e7: 00 14 69                     	addb	%dl, (%rcx,%rbp,2)
     5ea: 69 0d 00 00 04 00 69 00 00 00	imull	$0x69, 0x40000(%rip), %ecx # 0x405f4 <_end+0x3c5dc>
     5f4: 10 00                        	adcb	%al, (%rax)
     5f6: 00 00                        	addb	%al, (%rax)
     5f8: 75 1a                        	jne	0x614 <.gnu.version_r+0x4c>
     5fa: 69 09 00 00 03 00            	imull	$0x30000, (%rcx), %ecx  # imm = 0x30000
     600: 73 00                        	jae	0x602 <.gnu.version_r+0x3a>
     602: 00 00                        	addb	%al, (%rax)
     604: 10 00                        	adcb	%al, (%rax)
     606: 00 00                        	addb	%al, (%rax)
     608: b4 91                        	movb	$-0x6f, %ah
     60a: 96                           	xchgl	%esi, %eax
     60b: 06                           	<unknown>
     60c: 00 00                        	addb	%al, (%rax)
     60e: 02 00                        	addb	(%rax), %al
     610: 7f 00                        	jg	0x612 <.gnu.version_r+0x4a>
     612: 00 00                        	addb	%al, (%rax)
     614: 00 00                        	addb	%al, (%rax)
     616: 00 00                        	addb	%al, (%rax)

Disassembly of section .rela.dyn:

0000000000000618 <.rela.dyn>:
     618: 98                           	cwtl
     619: 3d 00 00 00 00               	cmpl	$0x0, %eax
     61e: 00 00                        	addb	%al, (%rax)
     620: 08 00                        	orb	%al, (%rax)
     622: 00 00                        	addb	%al, (%rax)
     624: 00 00                        	addb	%al, (%rax)
     626: 00 00                        	addb	%al, (%rax)
     628: c0 11 00                     	rclb	$0x0, (%rcx)
     62b: 00 00                        	addb	%al, (%rax)
     62d: 00 00                        	addb	%al, (%rax)
     62f: 00 a0 3d 00 00 00            	addb	%ah, 0x3d(%rax)
     635: 00 00                        	addb	%al, (%rax)
     637: 00 08                        	addb	%cl, (%rax)
     639: 00 00                        	addb	%al, (%rax)
     63b: 00 00                        	addb	%al, (%rax)
     63d: 00 00                        	addb	%al, (%rax)
     63f: 00 80 11 00 00 00            	addb	%al, 0x11(%rax)
     645: 00 00                        	addb	%al, (%rax)
     647: 00 08                        	addb	%cl, (%rax)
     649: 40 00 00                     	addb	%al, (%rax)
     64c: 00 00                        	addb	%al, (%rax)
     64e: 00 00                        	addb	%al, (%rax)
     650: 08 00                        	orb	%al, (%rax)
     652: 00 00                        	addb	%al, (%rax)
     654: 00 00                        	addb	%al, (%rax)
     656: 00 00                        	addb	%al, (%rax)
     658: 08 40 00                     	orb	%al, (%rax)
     65b: 00 00                        	addb	%al, (%rax)
     65d: 00 00                        	addb	%al, (%rax)
     65f: 00 d8                        	addb	%bl, %al
     661: 3f                           	<unknown>
     662: 00 00                        	addb	%al, (%rax)
     664: 00 00                        	addb	%al, (%rax)
     666: 00 00                        	addb	%al, (%rax)
     668: 06                           	<unknown>
     669: 00 00                        	addb	%al, (%rax)
     66b: 00 01                        	addb	%al, (%rcx)
		...
     675: 00 00                        	addb	%al, (%rax)
     677: 00 e0                        	addb	%ah, %al
     679: 3f                           	<unknown>
     67a: 00 00                        	addb	%al, (%rax)
     67c: 00 00                        	addb	%al, (%rax)
     67e: 00 00                        	addb	%al, (%rax)
     680: 06                           	<unknown>
     681: 00 00                        	addb	%al, (%rax)
     683: 00 02                        	addb	%al, (%rdx)
		...
     68d: 00 00                        	addb	%al, (%rax)
     68f: 00 e8                        	addb	%ch, %al
     691: 3f                           	<unknown>
     692: 00 00                        	addb	%al, (%rax)
     694: 00 00                        	addb	%al, (%rax)
     696: 00 00                        	addb	%al, (%rax)
     698: 06                           	<unknown>
     699: 00 00                        	addb	%al, (%rax)
     69b: 00 07                        	addb	%al, (%rdi)
		...
     6a5: 00 00                        	addb	%al, (%rax)
     6a7: 00 f0                        	addb	%dh, %al
     6a9: 3f                           	<unknown>
     6aa: 00 00                        	addb	%al, (%rax)
     6ac: 00 00                        	addb	%al, (%rax)
     6ae: 00 00                        	addb	%al, (%rax)
     6b0: 06                           	<unknown>
     6b1: 00 00                        	addb	%al, (%rax)
     6b3: 00 09                        	addb	%cl, (%rcx)
		...
     6bd: 00 00                        	addb	%al, (%rax)
     6bf: 00 f8                        	addb	%bh, %al
     6c1: 3f                           	<unknown>
     6c2: 00 00                        	addb	%al, (%rax)
     6c4: 00 00                        	addb	%al, (%rax)
     6c6: 00 00                        	addb	%al, (%rax)
     6c8: 06                           	<unknown>
     6c9: 00 00                        	addb	%al, (%rax)
     6cb: 00 0a                        	addb	%cl, (%rdx)
		...
     6d5: 00 00                        	addb	%al, (%rax)
     6d7: 00                           	<unknown>

Disassembly of section .rela.plt:

00000000000006d8 <.rela.plt>:
     6d8: b0 3f                        	movb	$0x3f, %al
     6da: 00 00                        	addb	%al, (%rax)
     6dc: 00 00                        	addb	%al, (%rax)
     6de: 00 00                        	addb	%al, (%rax)
     6e0: 07                           	<unknown>
     6e1: 00 00                        	addb	%al, (%rax)
     6e3: 00 03                        	addb	%al, (%rbx)
		...
     6ed: 00 00                        	addb	%al, (%rax)
     6ef: 00 b8 3f 00 00 00            	addb	%bh, 0x3f(%rax)
     6f5: 00 00                        	addb	%al, (%rax)
     6f7: 00 07                        	addb	%al, (%rdi)
     6f9: 00 00                        	addb	%al, (%rax)
     6fb: 00 04 00                     	addb	%al, (%rax,%rax)
		...
     706: 00 00                        	addb	%al, (%rax)
     708: c0 3f 00                     	sarb	$0x0, (%rdi)
     70b: 00 00                        	addb	%al, (%rax)
     70d: 00 00                        	addb	%al, (%rax)
     70f: 00 07                        	addb	%al, (%rdi)
     711: 00 00                        	addb	%al, (%rax)
     713: 00 05 00 00 00 00            	addb	%al, (%rip)             # 0x719 <.rela.plt+0x41>
     719: 00 00                        	addb	%al, (%rax)
     71b: 00 00                        	addb	%al, (%rax)
     71d: 00 00                        	addb	%al, (%rax)
     71f: 00 c8                        	addb	%cl, %al
     721: 3f                           	<unknown>
     722: 00 00                        	addb	%al, (%rax)
     724: 00 00                        	addb	%al, (%rax)
     726: 00 00                        	addb	%al, (%rax)
     728: 07                           	<unknown>
     729: 00 00                        	addb	%al, (%rax)
     72b: 00 06                        	addb	%al, (%rsi)
		...
     735: 00 00                        	addb	%al, (%rax)
     737: 00 d0                        	addb	%dl, %al
     739: 3f                           	<unknown>
     73a: 00 00                        	addb	%al, (%rax)
     73c: 00 00                        	addb	%al, (%rax)
     73e: 00 00                        	addb	%al, (%rax)
     740: 07                           	<unknown>
     741: 00 00                        	addb	%al, (%rax)
     743: 00 08                        	addb	%cl, (%rax)
		...
     74d: 00 00                        	addb	%al, (%rax)
     74f: 00                           	<unknown>

Disassembly of section .init:

0000000000001000 <_init>:
    1000: f3 0f 1e fa                  	endbr64
    1004: 48 83 ec 08                  	subq	$0x8, %rsp
    1008: 48 8b 05 d9 2f 00 00         	movq	0x2fd9(%rip), %rax      # 0x3fe8 <_GLOBAL_OFFSET_TABLE_+0x50>
    100f: 48 85 c0                     	testq	%rax, %rax
    1012: 74 02                        	je	0x1016 <_init+0x16>
    1014: ff d0                        	callq	*%rax
    1016: 48 83 c4 08                  	addq	$0x8, %rsp
    101a: c3                           	retq

Disassembly of section .plt:

0000000000001020 <.plt>:
    1020: ff 35 7a 2f 00 00            	pushq	0x2f7a(%rip)            # 0x3fa0 <_GLOBAL_OFFSET_TABLE_+0x8>
    1026: ff 25 7c 2f 00 00            	jmpq	*0x2f7c(%rip)           # 0x3fa8 <_GLOBAL_OFFSET_TABLE_+0x10>
    102c: 0f 1f 40 00                  	nopl	(%rax)
    1030: f3 0f 1e fa                  	endbr64
    1034: 68 00 00 00 00               	pushq	$0x0
    1039: e9 e2 ff ff ff               	jmp	0x1020 <.plt>
    103e: 66 90                        	nop
    1040: f3 0f 1e fa                  	endbr64
    1044: 68 01 00 00 00               	pushq	$0x1
    1049: e9 d2 ff ff ff               	jmp	0x1020 <.plt>
    104e: 66 90                        	nop
    1050: f3 0f 1e fa                  	endbr64
    1054: 68 02 00 00 00               	pushq	$0x2
    1059: e9 c2 ff ff ff               	jmp	0x1020 <.plt>
    105e: 66 90                        	nop
    1060: f3 0f 1e fa                  	endbr64
    1064: 68 03 00 00 00               	pushq	$0x3
    1069: e9 b2 ff ff ff               	jmp	0x1020 <.plt>
    106e: 66 90                        	nop
    1070: f3 0f 1e fa                  	endbr64
    1074: 68 04 00 00 00               	pushq	$0x4
    1079: e9 a2 ff ff ff               	jmp	0x1020 <.plt>
    107e: 66 90                        	nop

Disassembly of section .plt.got:

0000000000001080 <.plt.got>:
    1080: f3 0f 1e fa                  	endbr64

0000000000001084 <__cxa_finalize@plt>:
    1084: ff 25 6e 2f 00 00            	jmpq	*0x2f6e(%rip)           # 0x3ff8 <_GLOBAL_OFFSET_TABLE_+0x60>
    108a: 66 0f 1f 44 00 00            	nopw	(%rax,%rax)

Disassembly of section .plt.sec:

0000000000001090 <.plt.sec>:
    1090: f3 0f 1e fa                  	endbr64
    1094: ff 25 16 2f 00 00            	jmpq	*0x2f16(%rip)           # 0x3fb0 <_GLOBAL_OFFSET_TABLE_+0x18>
    109a: 66 0f 1f 44 00 00            	nopw	(%rax,%rax)
    10a0: f3 0f 1e fa                  	endbr64
    10a4: ff 25 0e 2f 00 00            	jmpq	*0x2f0e(%rip)           # 0x3fb8 <_GLOBAL_OFFSET_TABLE_+0x20>
    10aa: 66 0f 1f 44 00 00            	nopw	(%rax,%rax)
    10b0: f3 0f 1e fa                  	endbr64
    10b4: ff 25 06 2f 00 00            	jmpq	*0x2f06(%rip)           # 0x3fc0 <_GLOBAL_OFFSET_TABLE_+0x28>
    10ba: 66 0f 1f 44 00 00            	nopw	(%rax,%rax)
    10c0: f3 0f 1e fa                  	endbr64
    10c4: ff 25 fe 2e 00 00            	jmpq	*0x2efe(%rip)           # 0x3fc8 <_GLOBAL_OFFSET_TABLE_+0x30>
    10ca: 66 0f 1f 44 00 00            	nopw	(%rax,%rax)
    10d0: f3 0f 1e fa                  	endbr64
    10d4: ff 25 f6 2e 00 00            	jmpq	*0x2ef6(%rip)           # 0x3fd0 <_GLOBAL_OFFSET_TABLE_+0x38>
    10da: 66 0f 1f 44 00 00            	nopw	(%rax,%rax)

Disassembly of section .text:

00000000000010e0 <_start>:
    10e0: f3 0f 1e fa                  	endbr64
    10e4: 31 ed                        	xorl	%ebp, %ebp
    10e6: 49 89 d1                     	movq	%rdx, %r9
    10e9: 5e                           	popq	%rsi
    10ea: 48 89 e2                     	movq	%rsp, %rdx
    10ed: 48 83 e4 f0                  	andq	$-0x10, %rsp
    10f1: 50                           	pushq	%rax
    10f2: 54                           	pushq	%rsp
    10f3: 45 31 c0                     	xorl	%r8d, %r8d
    10f6: 31 c9                        	xorl	%ecx, %ecx
    10f8: 48 8d 3d ca 00 00 00         	leaq	0xca(%rip), %rdi        # 0x11c9 <main>
    10ff: ff 15 d3 2e 00 00            	callq	*0x2ed3(%rip)           # 0x3fd8 <_GLOBAL_OFFSET_TABLE_+0x40>
    1105: f4                           	hlt
    1106: 66 2e 0f 1f 84 00 00 00 00 00	nopw	%cs:(%rax,%rax)

0000000000001110 <deregister_tm_clones>:
    1110: 48 8d 3d f9 2e 00 00         	leaq	0x2ef9(%rip), %rdi      # 0x4010 <completed.0>
    1117: 48 8d 05 f2 2e 00 00         	leaq	0x2ef2(%rip), %rax      # 0x4010 <completed.0>
    111e: 48 39 f8                     	cmpq	%rdi, %rax
    1121: 74 15                        	je	0x1138 <deregister_tm_clones+0x28>
    1123: 48 8b 05 b6 2e 00 00         	movq	0x2eb6(%rip), %rax      # 0x3fe0 <_GLOBAL_OFFSET_TABLE_+0x48>
    112a: 48 85 c0                     	testq	%rax, %rax
    112d: 74 09                        	je	0x1138 <deregister_tm_clones+0x28>
    112f: ff e0                        	jmpq	*%rax
    1131: 0f 1f 80 00 00 00 00         	nopl	(%rax)
    1138: c3                           	retq
    1139: 0f 1f 80 00 00 00 00         	nopl	(%rax)

0000000000001140 <register_tm_clones>:
    1140: 48 8d 3d c9 2e 00 00         	leaq	0x2ec9(%rip), %rdi      # 0x4010 <completed.0>
    1147: 48 8d 35 c2 2e 00 00         	leaq	0x2ec2(%rip), %rsi      # 0x4010 <completed.0>
    114e: 48 29 fe                     	subq	%rdi, %rsi
    1151: 48 89 f0                     	movq	%rsi, %rax
    1154: 48 c1 ee 3f                  	shrq	$0x3f, %rsi
    1158: 48 c1 f8 03                  	sarq	$0x3, %rax
    115c: 48 01 c6                     	addq	%rax, %rsi
    115f: 48 d1 fe                     	sarq	%rsi
    1162: 74 14                        	je	0x1178 <register_tm_clones+0x38>
    1164: 48 8b 05 85 2e 00 00         	movq	0x2e85(%rip), %rax      # 0x3ff0 <_GLOBAL_OFFSET_TABLE_+0x58>
    116b: 48 85 c0                     	testq	%rax, %rax
    116e: 74 08                        	je	0x1178 <register_tm_clones+0x38>
    1170: ff e0                        	jmpq	*%rax
    1172: 66 0f 1f 44 00 00            	nopw	(%rax,%rax)
    1178: c3                           	retq
    1179: 0f 1f 80 00 00 00 00         	nopl	(%rax)

0000000000001180 <__do_global_dtors_aux>:
    1180: f3 0f 1e fa                  	endbr64
    1184: 80 3d 85 2e 00 00 00         	cmpb	$0x0, 0x2e85(%rip)      # 0x4010 <completed.0>
    118b: 75 2b                        	jne	0x11b8 <__do_global_dtors_aux+0x38>
    118d: 55                           	pushq	%rbp
    118e: 48 83 3d 62 2e 00 00 00      	cmpq	$0x0, 0x2e62(%rip)      # 0x3ff8 <_GLOBAL_OFFSET_TABLE_+0x60>
    1196: 48 89 e5                     	movq	%rsp, %rbp
    1199: 74 0c                        	je	0x11a7 <__do_global_dtors_aux+0x27>
    119b: 48 8b 3d 66 2e 00 00         	movq	0x2e66(%rip), %rdi      # 0x4008 <__dso_handle>
    11a2: e8 d9 fe ff ff               	callq	0x1080 <.plt.got>
    11a7: e8 64 ff ff ff               	callq	0x1110 <deregister_tm_clones>
    11ac: c6 05 5d 2e 00 00 01         	movb	$0x1, 0x2e5d(%rip)      # 0x4010 <completed.0>
    11b3: 5d                           	popq	%rbp
    11b4: c3                           	retq
    11b5: 0f 1f 00                     	nopl	(%rax)
    11b8: c3                           	retq
    11b9: 0f 1f 80 00 00 00 00         	nopl	(%rax)

00000000000011c0 <frame_dummy>:
    11c0: f3 0f 1e fa                  	endbr64
    11c4: e9 77 ff ff ff               	jmp	0x1140 <register_tm_clones>

00000000000011c9 <main>:
    11c9: f3 0f 1e fa                  	endbr64
    11cd: 55                           	pushq	%rbp
    11ce: 48 89 e5                     	movq	%rsp, %rbp
    11d1: 53                           	pushq	%rbx
    11d2: 48 81 ec 88 02 00 00         	subq	$0x288, %rsp            # imm = 0x288
    11d9: 64 48 8b 04 25 28 00 00 00   	movq	%fs:0x28, %rax
    11e2: 48 89 45 e8                  	movq	%rax, -0x18(%rbp)
    11e6: 31 c0                        	xorl	%eax, %eax
    11e8: 48 8d 05 f2 0f 00 00         	leaq	0xff2(%rip), %rax       # 0x21e1 <target+0x1c1>
    11ef: 48 89 c7                     	movq	%rax, %rdi
    11f2: b8 00 00 00 00               	movl	$0x0, %eax
    11f7: e8 c4 fe ff ff               	callq	0x10c0 <.plt.sec+0x30>
    11fc: 48 8d 85 90 fd ff ff         	leaq	-0x270(%rbp), %rax
    1203: 48 89 c6                     	movq	%rax, %rsi
    1206: 48 8d 05 e1 0f 00 00         	leaq	0xfe1(%rip), %rax       # 0x21ee <target+0x1ce>
    120d: 48 89 c7                     	movq	%rax, %rdi
    1210: b8 00 00 00 00               	movl	$0x0, %eax
    1215: e8 b6 fe ff ff               	callq	0x10d0 <.plt.sec+0x40>
    121a: 48 8d 85 90 fd ff ff         	leaq	-0x270(%rbp), %rax
    1221: 48 89 c7                     	movq	%rax, %rdi
    1224: e8 77 fe ff ff               	callq	0x10a0 <.plt.sec+0x10>
    1229: 48 83 f8 46                  	cmpq	$0x46, %rax
    122d: 76 19                        	jbe	0x1248 <main+0x7f>
    122f: 48 8d 05 bb 0f 00 00         	leaq	0xfbb(%rip), %rax       # 0x21f1 <target+0x1d1>
    1236: 48 89 c7                     	movq	%rax, %rdi
    1239: e8 52 fe ff ff               	callq	0x1090 <.plt.sec>
    123e: b8 00 00 00 00               	movl	$0x0, %eax
    1243: e9 b3 01 00 00               	jmp	0x13fb <main+0x232>
    1248: c7 85 78 fd ff ff 00 00 00 00	movl	$0x0, -0x288(%rbp)
    1252: c7 85 7c fd ff ff 00 00 00 00	movl	$0x0, -0x284(%rbp)
    125c: e9 e3 00 00 00               	jmp	0x1344 <main+0x17b>
    1261: c7 85 80 fd ff ff 00 00 00 00	movl	$0x0, -0x280(%rbp)
    126b: c7 85 84 fd ff ff ff 00 00 00	movl	$0xff, -0x27c(%rbp)
    1275: 8b 95 80 fd ff ff            	movl	-0x280(%rbp), %edx
    127b: 8b 85 84 fd ff ff            	movl	-0x27c(%rbp), %eax
    1281: 01 d0                        	addl	%edx, %eax
    1283: 89 c2                        	movl	%eax, %edx
    1285: c1 ea 1f                     	shrl	$0x1f, %edx
    1288: 01 d0                        	addl	%edx, %eax
    128a: d1 f8                        	sarl	%eax
    128c: 89 85 8c fd ff ff            	movl	%eax, -0x274(%rbp)
    1292: 8b 85 7c fd ff ff            	movl	-0x284(%rbp), %eax
    1298: 48 98                        	cltq
    129a: 0f b6 84 05 90 fd ff ff      	movzbl	-0x270(%rbp,%rax), %eax
    12a2: 0f be c0                     	movsbl	%al, %eax
    12a5: 39 85 8c fd ff ff            	cmpl	%eax, -0x274(%rbp)
    12ab: 75 1b                        	jne	0x12c8 <main+0xff>
    12ad: 8b 85 78 fd ff ff            	movl	-0x288(%rbp), %eax
    12b3: 8d 50 01                     	leal	0x1(%rax), %edx
    12b6: 89 95 78 fd ff ff            	movl	%edx, -0x288(%rbp)
    12bc: 48 98                        	cltq
    12be: c6 84 05 e0 fd ff ff 3d      	movb	$0x3d, -0x220(%rbp,%rax)
    12c6: eb 75                        	jmp	0x133d <main+0x174>
    12c8: 8b 85 7c fd ff ff            	movl	-0x284(%rbp), %eax
    12ce: 48 98                        	cltq
    12d0: 0f b6 84 05 90 fd ff ff      	movzbl	-0x270(%rbp,%rax), %eax
    12d8: 0f be c0                     	movsbl	%al, %eax
    12db: 39 85 8c fd ff ff            	cmpl	%eax, -0x274(%rbp)
    12e1: 7d 2d                        	jge	0x1310 <main+0x147>
    12e3: 8b 85 78 fd ff ff            	movl	-0x288(%rbp), %eax
    12e9: 8d 50 01                     	leal	0x1(%rax), %edx
    12ec: 89 95 78 fd ff ff            	movl	%edx, -0x288(%rbp)
    12f2: 48 98                        	cltq
    12f4: c6 84 05 e0 fd ff ff 3e      	movb	$0x3e, -0x220(%rbp,%rax)
    12fc: 8b 85 8c fd ff ff            	movl	-0x274(%rbp), %eax
    1302: 83 c0 01                     	addl	$0x1, %eax
    1305: 89 85 80 fd ff ff            	movl	%eax, -0x280(%rbp)
    130b: e9 65 ff ff ff               	jmp	0x1275 <main+0xac>
    1310: 8b 85 78 fd ff ff            	movl	-0x288(%rbp), %eax
    1316: 8d 50 01                     	leal	0x1(%rax), %edx
    1319: 89 95 78 fd ff ff            	movl	%edx, -0x288(%rbp)
    131f: 48 98                        	cltq
    1321: c6 84 05 e0 fd ff ff 3c      	movb	$0x3c, -0x220(%rbp,%rax)
    1329: 8b 85 8c fd ff ff            	movl	-0x274(%rbp), %eax
    132f: 83 e8 01                     	subl	$0x1, %eax
    1332: 89 85 84 fd ff ff            	movl	%eax, -0x27c(%rbp)
    1338: e9 38 ff ff ff               	jmp	0x1275 <main+0xac>
    133d: 83 85 7c fd ff ff 01         	addl	$0x1, -0x284(%rbp)
    1344: 8b 85 7c fd ff ff            	movl	-0x284(%rbp), %eax
    134a: 48 63 d8                     	movslq	%eax, %rbx
    134d: 48 8d 85 90 fd ff ff         	leaq	-0x270(%rbp), %rax
    1354: 48 89 c7                     	movq	%rax, %rdi
    1357: e8 44 fd ff ff               	callq	0x10a0 <.plt.sec+0x10>
    135c: 48 39 c3                     	cmpq	%rax, %rbx
    135f: 0f 82 fc fe ff ff            	jb	0x1261 <main+0x98>
    1365: 81 bd 78 fd ff ff c0 01 00 00	cmpl	$0x1c0, -0x288(%rbp)    # imm = 0x1C0
    136f: 74 16                        	je	0x1387 <main+0x1be>
    1371: 48 8d 05 79 0e 00 00         	leaq	0xe79(%rip), %rax       # 0x21f1 <target+0x1d1>
    1378: 48 89 c7                     	movq	%rax, %rdi
    137b: e8 10 fd ff ff               	callq	0x1090 <.plt.sec>
    1380: b8 00 00 00 00               	movl	$0x0, %eax
    1385: eb 74                        	jmp	0x13fb <main+0x232>
    1387: c7 85 88 fd ff ff 00 00 00 00	movl	$0x0, -0x278(%rbp)
    1391: eb 44                        	jmp	0x13d7 <main+0x20e>
    1393: 8b 85 88 fd ff ff            	movl	-0x278(%rbp), %eax
    1399: 48 98                        	cltq
    139b: 0f b6 94 05 e0 fd ff ff      	movzbl	-0x220(%rbp,%rax), %edx
    13a3: 8b 85 88 fd ff ff            	movl	-0x278(%rbp), %eax
    13a9: 48 98                        	cltq
    13ab: 48 8d 0d 6e 0c 00 00         	leaq	0xc6e(%rip), %rcx       # 0x2020 <target>
    13b2: 0f b6 04 08                  	movzbl	(%rax,%rcx), %eax
    13b6: 38 c2                        	cmpb	%al, %dl
    13b8: 74 16                        	je	0x13d0 <main+0x207>
    13ba: 48 8d 05 30 0e 00 00         	leaq	0xe30(%rip), %rax       # 0x21f1 <target+0x1d1>
    13c1: 48 89 c7                     	movq	%rax, %rdi
    13c4: e8 c7 fc ff ff               	callq	0x1090 <.plt.sec>
    13c9: b8 00 00 00 00               	movl	$0x0, %eax
    13ce: eb 2b                        	jmp	0x13fb <main+0x232>
    13d0: 83 85 88 fd ff ff 01         	addl	$0x1, -0x278(%rbp)
    13d7: 8b 85 88 fd ff ff            	movl	-0x278(%rbp), %eax
    13dd: 48 98                        	cltq
    13df: 48 3d bf 01 00 00            	cmpq	$0x1bf, %rax            # imm = 0x1BF
    13e5: 76 ac                        	jbe	0x1393 <main+0x1ca>
    13e7: 48 8d 05 08 0e 00 00         	leaq	0xe08(%rip), %rax       # 0x21f6 <target+0x1d6>
    13ee: 48 89 c7                     	movq	%rax, %rdi
    13f1: e8 9a fc ff ff               	callq	0x1090 <.plt.sec>
    13f6: b8 00 00 00 00               	movl	$0x0, %eax
    13fb: 48 8b 55 e8                  	movq	-0x18(%rbp), %rdx
    13ff: 64 48 2b 14 25 28 00 00 00   	subq	%fs:0x28, %rdx
    1408: 74 05                        	je	0x140f <main+0x246>
    140a: e8 a1 fc ff ff               	callq	0x10b0 <.plt.sec+0x20>
    140f: 48 8b 5d f8                  	movq	-0x8(%rbp), %rbx
    1413: c9                           	leave
    1414: c3                           	retq

Disassembly of section .fini:

0000000000001418 <_fini>:
    1418: f3 0f 1e fa                  	endbr64
    141c: 48 83 ec 08                  	subq	$0x8, %rsp
    1420: 48 83 c4 08                  	addq	$0x8, %rsp
    1424: c3                           	retq

Disassembly of section .rodata:

0000000000002000 <_IO_stdin_used>:
    2000: 01 00                        	addl	%eax, (%rax)
    2002: 02 00                        	addb	(%rax), %al
		...

0000000000002020 <target>:
    2020: 3c 3e                        	cmpb	$0x3e, %al
    2022: 3c 3c                        	cmpb	$0x3c, %al
    2024: 3c 3e                        	cmpb	$0x3e, %al
    2026: 3e 3d 3c 3e 3e 3d            	cmpl	$0x3d3e3e3c, %eax       # imm = 0x3D3E3E3C
    202c: 3c 3e                        	cmpb	$0x3e, %al
    202e: 3e 3e 3c 3c                  	cmpb	$0x3c, %al
    2032: 3e 3d 3c 3e 3e 3e            	cmpl	$0x3e3e3e3c, %eax       # imm = 0x3E3E3E3C
    2038: 3c 3e                        	cmpb	$0x3e, %al
    203a: 3c 3d                        	cmpb	$0x3d, %al
    203c: 3c 3e                        	cmpb	$0x3e, %al
    203e: 3c 3c                        	cmpb	$0x3c, %al
    2040: 3e 3c 3d                     	cmpb	$0x3d, %al
    2043: 3c 3e                        	cmpb	$0x3e, %al
    2045: 3c 3c                        	cmpb	$0x3c, %al
    2047: 3c 3e                        	cmpb	$0x3e, %al
    2049: 3c 3d                        	cmpb	$0x3d, %al
    204b: 3c 3e                        	cmpb	$0x3e, %al
    204d: 3e 3e 3e 3d 3c 3c 3e 3e      	cmpl	$0x3e3e3c3c, %eax       # imm = 0x3E3E3C3C
    2055: 3c 3d                        	cmpb	$0x3d, %al
    2057: 3c 3e                        	cmpb	$0x3e, %al
    2059: 3e 3c 3c                     	cmpb	$0x3c, %al
    205c: 3c 3d                        	cmpb	$0x3d, %al
    205e: 3c 3c                        	cmpb	$0x3c, %al
    2060: 3e 3e 3d 3c 3e 3d 3c         	cmpl	$0x3c3d3e3c, %eax       # imm = 0x3C3D3E3C
    2067: 3e 3c 3e                     	cmpb	$0x3e, %al
    206a: 3e 3c 3d                     	cmpb	$0x3d, %al
    206d: 3c 3c                        	cmpb	$0x3c, %al
    206f: 3e 3e 3c 3c                  	cmpb	$0x3c, %al
    2073: 3c 3d                        	cmpb	$0x3d, %al
    2075: 3c 3e                        	cmpb	$0x3e, %al
    2077: 3e 3e 3c 3e                  	cmpb	$0x3e, %al
    207b: 3d 3c 3e 3e 3e               	cmpl	$0x3e3e3e3c, %eax       # imm = 0x3E3E3E3C
    2080: 3c 3c                        	cmpb	$0x3c, %al
    2082: 3e 3d 3c 3e 3d 3c            	cmpl	$0x3c3d3e3c, %eax       # imm = 0x3C3D3E3C
    2088: 3e 3c 3e                     	cmpb	$0x3e, %al
    208b: 3c 3e                        	cmpb	$0x3e, %al
    208d: 3e 3d 3c 3c 3e 3e            	cmpl	$0x3e3e3c3c, %eax       # imm = 0x3E3E3C3C
    2093: 3c 3d                        	cmpb	$0x3d, %al
    2095: 3c 3e                        	cmpb	$0x3e, %al
    2097: 3e 3c 3d                     	cmpb	$0x3d, %al
    209a: 3c 3e                        	cmpb	$0x3e, %al
    209c: 3e 3c 3d                     	cmpb	$0x3d, %al
    209f: 3c 3c                        	cmpb	$0x3c, %al
    20a1: 3e 3e 3c 3c                  	cmpb	$0x3c, %al
    20a5: 3d 3c 3e 3e 3c               	cmpl	$0x3c3e3e3c, %eax       # imm = 0x3C3E3E3C
    20aa: 3c 3e                        	cmpb	$0x3e, %al
    20ac: 3d 3c 3c 3e 3e               	cmpl	$0x3e3e3c3c, %eax       # imm = 0x3E3E3C3C
    20b1: 3c 3e                        	cmpb	$0x3e, %al
    20b3: 3d 3c 3e 3d 3c               	cmpl	$0x3c3d3e3c, %eax       # imm = 0x3C3D3E3C
    20b8: 3c 3e                        	cmpb	$0x3e, %al
    20ba: 3e 3c 3e                     	cmpb	$0x3e, %al
    20bd: 3c 3d                        	cmpb	$0x3d, %al
    20bf: 3c 3e                        	cmpb	$0x3e, %al
    20c1: 3e 3c 3e                     	cmpb	$0x3e, %al
    20c4: 3e 3e 3d 3c 3e 3e 3c         	cmpl	$0x3c3e3e3c, %eax       # imm = 0x3C3E3E3C
    20cb: 3c 3e                        	cmpb	$0x3e, %al
    20cd: 3c 3d                        	cmpb	$0x3d, %al
    20cf: 3c 3e                        	cmpb	$0x3e, %al
    20d1: 3d 3c 3e 3c 3c               	cmpl	$0x3c3c3e3c, %eax       # imm = 0x3C3C3E3C
    20d6: 3e 3e 3c 3d                  	cmpb	$0x3d, %al
    20da: 3c 3c                        	cmpb	$0x3c, %al
    20dc: 3e 3e 3c 3d                  	cmpb	$0x3d, %al
    20e0: 3c 3e                        	cmpb	$0x3e, %al
    20e2: 3e 3e 3c 3c                  	cmpb	$0x3c, %al
    20e6: 3e 3d 3c 3e 3e 3c            	cmpl	$0x3c3e3e3c, %eax       # imm = 0x3C3E3E3C
    20ec: 3e 3e 3e 3d 3c 3e 3d 3c      	cmpl	$0x3c3d3e3c, %eax       # imm = 0x3C3D3E3C
    20f4: 3e 3c 3e                     	cmpb	$0x3e, %al
    20f7: 3e 3c 3d                     	cmpb	$0x3d, %al
    20fa: 3c 3c                        	cmpb	$0x3c, %al
    20fc: 3e 3e 3c 3c                  	cmpb	$0x3c, %al
    2100: 3c 3d                        	cmpb	$0x3d, %al
    2102: 3c 3e                        	cmpb	$0x3e, %al
    2104: 3e 3e 3c 3e                  	cmpb	$0x3e, %al
    2108: 3d 3c 3e 3e 3e               	cmpl	$0x3e3e3e3c, %eax       # imm = 0x3E3E3E3C
    210d: 3c 3c                        	cmpb	$0x3c, %al
    210f: 3e 3d 3c 3e 3d 3c            	cmpl	$0x3c3d3e3c, %eax       # imm = 0x3C3D3E3C
    2115: 3e 3c 3c                     	cmpb	$0x3c, %al
    2118: 3c 3e                        	cmpb	$0x3e, %al
    211a: 3e 3d 3c 3e 3e 3e            	cmpl	$0x3e3e3e3c, %eax       # imm = 0x3E3E3E3C
    2120: 3c 3e                        	cmpb	$0x3e, %al
    2122: 3d 3c 3e 3e 3c               	cmpl	$0x3c3e3e3c, %eax       # imm = 0x3C3E3E3C
    2127: 3e 3e 3e 3d 3c 3e 3e 3c      	cmpl	$0x3c3e3e3c, %eax       # imm = 0x3C3E3E3C
    212f: 3c 3e                        	cmpb	$0x3e, %al
    2131: 3c 3d                        	cmpb	$0x3d, %al
    2133: 3c 3c                        	cmpb	$0x3c, %al
    2135: 3e 3e 3c 3e                  	cmpb	$0x3e, %al
    2139: 3c 3d                        	cmpb	$0x3d, %al
    213b: 3c 3e                        	cmpb	$0x3e, %al
    213d: 3e 3c 3e                     	cmpb	$0x3e, %al
    2140: 3e 3d 3c 3c 3e 3e            	cmpl	$0x3e3e3c3c, %eax       # imm = 0x3E3E3C3C
    2146: 3c 3d                        	cmpb	$0x3d, %al
    2148: 3c 3e                        	cmpb	$0x3e, %al
    214a: 3e 3c 3e                     	cmpb	$0x3e, %al
    214d: 3e 3e 3d 3c 3c 3e 3e         	cmpl	$0x3e3e3c3c, %eax       # imm = 0x3E3E3C3C
    2154: 3d 3c 3c 3e 3e               	cmpl	$0x3e3e3c3c, %eax       # imm = 0x3E3E3C3C
    2159: 3c 3e                        	cmpb	$0x3e, %al
    215b: 3c 3d                        	cmpb	$0x3d, %al
    215d: 3c 3c                        	cmpb	$0x3c, %al
    215f: 3e 3e 3c 3c                  	cmpb	$0x3c, %al
    2163: 3d 3c 3e 3d 3c               	cmpl	$0x3c3d3e3c, %eax       # imm = 0x3C3D3E3C
    2168: 3e 3c 3e                     	cmpb	$0x3e, %al
    216b: 3c 3d                        	cmpb	$0x3d, %al
    216d: 3c 3c                        	cmpb	$0x3c, %al
    216f: 3e 3e 3c 3d                  	cmpb	$0x3d, %al
    2173: 3c 3e                        	cmpb	$0x3e, %al
    2175: 3e 3c 3c                     	cmpb	$0x3c, %al
    2178: 3c 3d                        	cmpb	$0x3d, %al
    217a: 3c 3e                        	cmpb	$0x3e, %al
    217c: 3e 3e 3c 3c                  	cmpb	$0x3c, %al
    2180: 3e 3d 3c 3e 3e 3c            	cmpl	$0x3c3e3e3c, %eax       # imm = 0x3C3E3E3C
    2186: 3c 3d                        	cmpb	$0x3d, %al
    2188: 3c 3e                        	cmpb	$0x3e, %al
    218a: 3e 3c 3e                     	cmpb	$0x3e, %al
    218d: 3c 3c                        	cmpb	$0x3c, %al
    218f: 3d 3c 3e 3d 3c               	cmpl	$0x3c3d3e3c, %eax       # imm = 0x3C3D3E3C
    2194: 3e 3c 3c                     	cmpb	$0x3c, %al
    2197: 3c 3c                        	cmpb	$0x3c, %al
    2199: 3d 3c 3e 3e 3c               	cmpl	$0x3c3e3e3c, %eax       # imm = 0x3C3E3E3C
    219e: 3e 3e 3c 3d                  	cmpb	$0x3d, %al
    21a2: 3c 3e                        	cmpb	$0x3e, %al
    21a4: 3e 3c 3d                     	cmpb	$0x3d, %al
    21a7: 3c 3c                        	cmpb	$0x3c, %al
    21a9: 3e 3e 3c 3c                  	cmpb	$0x3c, %al
    21ad: 3c 3d                        	cmpb	$0x3d, %al
    21af: 3c 3e                        	cmpb	$0x3e, %al
    21b1: 3e 3e 3c 3c                  	cmpb	$0x3c, %al
    21b5: 3e 3d 3c 3c 3e 3e            	cmpl	$0x3e3e3c3c, %eax       # imm = 0x3E3E3C3C
    21bb: 3c 3c                        	cmpb	$0x3c, %al
    21bd: 3d 3c 3c 3e 3e               	cmpl	$0x3e3e3c3c, %eax       # imm = 0x3E3E3C3C
    21c2: 3d 3c 3e 3e 3c               	cmpl	$0x3c3e3e3c, %eax       # imm = 0x3C3E3E3C
    21c7: 3e 3c 3c                     	cmpb	$0x3c, %al
    21ca: 3d 3c 3e 3e 3c               	cmpl	$0x3c3e3e3c, %eax       # imm = 0x3C3E3E3C
    21cf: 3e 3e 3d 3c 3c 3e 3e         	cmpl	$0x3e3e3c3c, %eax       # imm = 0x3E3E3C3C
    21d6: 3c 3e                        	cmpb	$0x3e, %al
    21d8: 3d 3c 3e 3e 3e               	cmpl	$0x3e3e3e3c, %eax       # imm = 0x3E3E3E3C
    21dd: 3e 3e 3d 00 45 6e 74         	cmpl	$0x746e4500, %eax       # imm = 0x746E4500
    21e4: 65 72 20                     	jb	0x2207 <__GNU_EH_FRAME_HDR+0x7>
    21e7: 66 6c                        	insb	%dx, %es:(%rdi)
    21e9: 61                           	<unknown>
    21ea: 67 3a 20                     	cmpb	(%eax), %ah
    21ed: 00 25 73 00 4e 6f            	addb	%ah, 0x6f4e0073(%rip)   # 0x6f4e2266 <_end+0x6f4de24e>
    21f3: 70 65                        	jo	0x225a <strlen@GLIBC_2.2.5+0x225a>
    21f5: 00 43 6f                     	addb	%al, 0x6f(%rbx)
    21f8: 72 72                        	jb	0x226c <strlen@GLIBC_2.2.5+0x226c>
    21fa: 65 63 74 21 00               	movslq	%gs:(%rcx,%riz), %esi

Disassembly of section .eh_frame_hdr:

0000000000002200 <__GNU_EH_FRAME_HDR>:
    2200: 01 1b                        	addl	%ebx, (%rbx)
    2202: 03 3b                        	addl	(%rbx), %edi
    2204: 34 00                        	xorb	$0x0, %al
    2206: 00 00                        	addb	%al, (%rax)
    2208: 05 00 00 00 20               	addl	$0x20000000, %eax       # imm = 0x20000000
    220d: ee                           	outb	%al, %dx
    220e: ff ff                        	<unknown>
    2210: 68 00 00 00 80               	pushq	$-0x80000000            # imm = 0x80000000
    2215: ee                           	outb	%al, %dx
    2216: ff ff                        	<unknown>
    2218: 90                           	nop
    2219: 00 00                        	addb	%al, (%rax)
    221b: 00 90 ee ff ff a8            	addb	%dl, -0x57000012(%rax)
    2221: 00 00                        	addb	%al, (%rax)
    2223: 00 e0                        	addb	%ah, %al
    2225: ee                           	outb	%al, %dx
    2226: ff ff                        	<unknown>
    2228: 50                           	pushq	%rax
    2229: 00 00                        	addb	%al, (%rax)
    222b: 00 c9                        	addb	%cl, %cl
    222d: ef                           	outl	%eax, %dx
    222e: ff ff                        	<unknown>
    2230: c0 00 00                     	rolb	$0x0, (%rax)
    2233: 00                           	<unknown>

Disassembly of section .eh_frame:

0000000000002238 <.eh_frame>:
    2238: 14 00                        	adcb	$0x0, %al
    223a: 00 00                        	addb	%al, (%rax)
    223c: 00 00                        	addb	%al, (%rax)
    223e: 00 00                        	addb	%al, (%rax)
    2240: 01 7a 52                     	addl	%edi, 0x52(%rdx)
    2243: 00 01                        	addb	%al, (%rcx)
    2245: 78 10                        	js	0x2257 <.eh_frame+0x1f>
    2247: 01 1b                        	addl	%ebx, (%rbx)
    2249: 0c 07                        	orb	$0x7, %al
    224b: 08 90 01 00 00 14            	orb	%dl, 0x14000001(%rax)
    2251: 00 00                        	addb	%al, (%rax)
    2253: 00 1c 00                     	addb	%bl, (%rax,%rax)
    2256: 00 00                        	addb	%al, (%rax)
    2258: 88 ee                        	movb	%ch, %dh
    225a: ff ff                        	<unknown>
    225c: 26 00 00                     	addb	%al, %es:(%rax)
    225f: 00 00                        	addb	%al, (%rax)
    2261: 44 07                        	<unknown>
    2263: 10 00                        	adcb	%al, (%rax)
    2265: 00 00                        	addb	%al, (%rax)
    2267: 00 24 00                     	addb	%ah, (%rax,%rax)
    226a: 00 00                        	addb	%al, (%rax)
    226c: 34 00                        	xorb	$0x0, %al
    226e: 00 00                        	addb	%al, (%rax)
    2270: b0 ed                        	movb	$-0x13, %al
    2272: ff ff                        	<unknown>
    2274: 60                           	<unknown>
    2275: 00 00                        	addb	%al, (%rax)
    2277: 00 00                        	addb	%al, (%rax)
    2279: 0e                           	<unknown>
    227a: 10 46 0e                     	adcb	%al, 0xe(%rsi)
    227d: 18 4a 0f                     	sbbb	%cl, 0xf(%rdx)
    2280: 0b 77 08                     	orl	0x8(%rdi), %esi
    2283: 80 00 3f                     	addb	$0x3f, (%rax)
    2286: 1a 39                        	sbbb	(%rcx), %bh
    2288: 2a 33                        	subb	(%rbx), %dh
    228a: 24 22                        	andb	$0x22, %al
    228c: 00 00                        	addb	%al, (%rax)
    228e: 00 00                        	addb	%al, (%rax)
    2290: 14 00                        	adcb	$0x0, %al
    2292: 00 00                        	addb	%al, (%rax)
    2294: 5c                           	popq	%rsp
    2295: 00 00                        	addb	%al, (%rax)
    2297: 00 e8                        	addb	%ch, %al
    2299: ed                           	inl	%dx, %eax
    229a: ff ff                        	<unknown>
    229c: 10 00                        	adcb	%al, (%rax)
		...
    22a6: 00 00                        	addb	%al, (%rax)
    22a8: 14 00                        	adcb	$0x0, %al
    22aa: 00 00                        	addb	%al, (%rax)
    22ac: 74 00                        	je	0x22ae <.eh_frame+0x76>
    22ae: 00 00                        	addb	%al, (%rax)
    22b0: e0 ed                        	loopne	0x229f <.eh_frame+0x67>
    22b2: ff ff                        	<unknown>
    22b4: 50                           	pushq	%rax
		...
    22bd: 00 00                        	addb	%al, (%rax)
    22bf: 00 20                        	addb	%ah, (%rax)
    22c1: 00 00                        	addb	%al, (%rax)
    22c3: 00 8c 00 00 00 01 ef         	addb	%cl, -0x10ff0000(%rax,%rax)
    22ca: ff ff                        	<unknown>
    22cc: 4c 02 00                     	addb	(%rax), %r8b
    22cf: 00 00                        	addb	%al, (%rax)
    22d1: 45 0e                        	<unknown>
    22d3: 10 86 02 43 0d 06            	adcb	%al, 0x60d4302(%rsi)
    22d9: 48 83 03 03                  	addq	$0x3, (%rbx)
    22dd: 3b 02                        	cmpl	(%rdx), %eax
    22df: 0c 07                        	orb	$0x7, %al
    22e1: 08 00                        	orb	%al, (%rax)
    22e3: 00 00                        	addb	%al, (%rax)

00000000000022e4 <__FRAME_END__>:
    22e4: 00 00                        	addb	%al, (%rax)
    22e6: 00 00                        	addb	%al, (%rax)

Disassembly of section .init_array:

0000000000003d98 <__frame_dummy_init_array_entry>:
    3d98: c0 11 00                     	rclb	$0x0, (%rcx)
    3d9b: 00 00                        	addb	%al, (%rax)
    3d9d: 00 00                        	addb	%al, (%rax)
    3d9f: 00                           	<unknown>

Disassembly of section .fini_array:

0000000000003da0 <__do_global_dtors_aux_fini_array_entry>:
    3da0: 80 11 00                     	adcb	$0x0, (%rcx)
    3da3: 00 00                        	addb	%al, (%rax)
    3da5: 00 00                        	addb	%al, (%rax)
    3da7: 00                           	<unknown>

Disassembly of section .dynamic:

0000000000003da8 <_DYNAMIC>:
    3da8: 01 00                        	addl	%eax, (%rax)
    3daa: 00 00                        	addb	%al, (%rax)
    3dac: 00 00                        	addb	%al, (%rax)
    3dae: 00 00                        	addb	%al, (%rax)
    3db0: 55                           	pushq	%rbp
    3db1: 00 00                        	addb	%al, (%rax)
    3db3: 00 00                        	addb	%al, (%rax)
    3db5: 00 00                        	addb	%al, (%rax)
    3db7: 00 0c 00                     	addb	%cl, (%rax,%rax)
    3dba: 00 00                        	addb	%al, (%rax)
    3dbc: 00 00                        	addb	%al, (%rax)
    3dbe: 00 00                        	addb	%al, (%rax)
    3dc0: 00 10                        	addb	%dl, (%rax)
    3dc2: 00 00                        	addb	%al, (%rax)
    3dc4: 00 00                        	addb	%al, (%rax)
    3dc6: 00 00                        	addb	%al, (%rax)
    3dc8: 0d 00 00 00 00               	orl	$0x0, %eax
    3dcd: 00 00                        	addb	%al, (%rax)
    3dcf: 00 18                        	addb	%bl, (%rax)
    3dd1: 14 00                        	adcb	$0x0, %al
    3dd3: 00 00                        	addb	%al, (%rax)
    3dd5: 00 00                        	addb	%al, (%rax)
    3dd7: 00 19                        	addb	%bl, (%rcx)
    3dd9: 00 00                        	addb	%al, (%rax)
    3ddb: 00 00                        	addb	%al, (%rax)
    3ddd: 00 00                        	addb	%al, (%rax)
    3ddf: 00 98 3d 00 00 00            	addb	%bl, 0x3d(%rax)
    3de5: 00 00                        	addb	%al, (%rax)
    3de7: 00 1b                        	addb	%bl, (%rbx)
    3de9: 00 00                        	addb	%al, (%rax)
    3deb: 00 00                        	addb	%al, (%rax)
    3ded: 00 00                        	addb	%al, (%rax)
    3def: 00 08                        	addb	%cl, (%rax)
    3df1: 00 00                        	addb	%al, (%rax)
    3df3: 00 00                        	addb	%al, (%rax)
    3df5: 00 00                        	addb	%al, (%rax)
    3df7: 00 1a                        	addb	%bl, (%rdx)
    3df9: 00 00                        	addb	%al, (%rax)
    3dfb: 00 00                        	addb	%al, (%rax)
    3dfd: 00 00                        	addb	%al, (%rax)
    3dff: 00 a0 3d 00 00 00            	addb	%ah, 0x3d(%rax)
    3e05: 00 00                        	addb	%al, (%rax)
    3e07: 00 1c 00                     	addb	%bl, (%rax,%rax)
    3e0a: 00 00                        	addb	%al, (%rax)
    3e0c: 00 00                        	addb	%al, (%rax)
    3e0e: 00 00                        	addb	%al, (%rax)
    3e10: 08 00                        	orb	%al, (%rax)
    3e12: 00 00                        	addb	%al, (%rax)
    3e14: 00 00                        	addb	%al, (%rax)
    3e16: 00 00                        	addb	%al, (%rax)
    3e18: f5                           	cmc
    3e19: fe ff                        	<unknown>
    3e1b: 6f                           	outsl	(%rsi), %dx
    3e1c: 00 00                        	addb	%al, (%rax)
    3e1e: 00 00                        	addb	%al, (%rax)
    3e20: b0 03                        	movb	$0x3, %al
    3e22: 00 00                        	addb	%al, (%rax)
    3e24: 00 00                        	addb	%al, (%rax)
    3e26: 00 00                        	addb	%al, (%rax)
    3e28: 05 00 00 00 00               	addl	$0x0, %eax
    3e2d: 00 00                        	addb	%al, (%rax)
    3e2f: 00 e0                        	addb	%ah, %al
    3e31: 04 00                        	addb	$0x0, %al
    3e33: 00 00                        	addb	%al, (%rax)
    3e35: 00 00                        	addb	%al, (%rax)
    3e37: 00 06                        	addb	%al, (%rsi)
    3e39: 00 00                        	addb	%al, (%rax)
    3e3b: 00 00                        	addb	%al, (%rax)
    3e3d: 00 00                        	addb	%al, (%rax)
    3e3f: 00 d8                        	addb	%bl, %al
    3e41: 03 00                        	addl	(%rax), %eax
    3e43: 00 00                        	addb	%al, (%rax)
    3e45: 00 00                        	addb	%al, (%rax)
    3e47: 00 0a                        	addb	%cl, (%rdx)
    3e49: 00 00                        	addb	%al, (%rax)
    3e4b: 00 00                        	addb	%al, (%rax)
    3e4d: 00 00                        	addb	%al, (%rax)
    3e4f: 00 cf                        	addb	%cl, %bh
    3e51: 00 00                        	addb	%al, (%rax)
    3e53: 00 00                        	addb	%al, (%rax)
    3e55: 00 00                        	addb	%al, (%rax)
    3e57: 00 0b                        	addb	%cl, (%rbx)
    3e59: 00 00                        	addb	%al, (%rax)
    3e5b: 00 00                        	addb	%al, (%rax)
    3e5d: 00 00                        	addb	%al, (%rax)
    3e5f: 00 18                        	addb	%bl, (%rax)
    3e61: 00 00                        	addb	%al, (%rax)
    3e63: 00 00                        	addb	%al, (%rax)
    3e65: 00 00                        	addb	%al, (%rax)
    3e67: 00 15 00 00 00 00            	addb	%dl, (%rip)             # 0x3e6d <_DYNAMIC+0xc5>
		...
    3e75: 00 00                        	addb	%al, (%rax)
    3e77: 00 03                        	addb	%al, (%rbx)
    3e79: 00 00                        	addb	%al, (%rax)
    3e7b: 00 00                        	addb	%al, (%rax)
    3e7d: 00 00                        	addb	%al, (%rax)
    3e7f: 00 98 3f 00 00 00            	addb	%bl, 0x3f(%rax)
    3e85: 00 00                        	addb	%al, (%rax)
    3e87: 00 02                        	addb	%al, (%rdx)
    3e89: 00 00                        	addb	%al, (%rax)
    3e8b: 00 00                        	addb	%al, (%rax)
    3e8d: 00 00                        	addb	%al, (%rax)
    3e8f: 00 78 00                     	addb	%bh, (%rax)
    3e92: 00 00                        	addb	%al, (%rax)
    3e94: 00 00                        	addb	%al, (%rax)
    3e96: 00 00                        	addb	%al, (%rax)
    3e98: 14 00                        	adcb	$0x0, %al
    3e9a: 00 00                        	addb	%al, (%rax)
    3e9c: 00 00                        	addb	%al, (%rax)
    3e9e: 00 00                        	addb	%al, (%rax)
    3ea0: 07                           	<unknown>
    3ea1: 00 00                        	addb	%al, (%rax)
    3ea3: 00 00                        	addb	%al, (%rax)
    3ea5: 00 00                        	addb	%al, (%rax)
    3ea7: 00 17                        	addb	%dl, (%rdi)
    3ea9: 00 00                        	addb	%al, (%rax)
    3eab: 00 00                        	addb	%al, (%rax)
    3ead: 00 00                        	addb	%al, (%rax)
    3eaf: 00 d8                        	addb	%bl, %al
    3eb1: 06                           	<unknown>
    3eb2: 00 00                        	addb	%al, (%rax)
    3eb4: 00 00                        	addb	%al, (%rax)
    3eb6: 00 00                        	addb	%al, (%rax)
    3eb8: 07                           	<unknown>
    3eb9: 00 00                        	addb	%al, (%rax)
    3ebb: 00 00                        	addb	%al, (%rax)
    3ebd: 00 00                        	addb	%al, (%rax)
    3ebf: 00 18                        	addb	%bl, (%rax)
    3ec1: 06                           	<unknown>
    3ec2: 00 00                        	addb	%al, (%rax)
    3ec4: 00 00                        	addb	%al, (%rax)
    3ec6: 00 00                        	addb	%al, (%rax)
    3ec8: 08 00                        	orb	%al, (%rax)
    3eca: 00 00                        	addb	%al, (%rax)
    3ecc: 00 00                        	addb	%al, (%rax)
    3ece: 00 00                        	addb	%al, (%rax)
    3ed0: c0 00 00                     	rolb	$0x0, (%rax)
    3ed3: 00 00                        	addb	%al, (%rax)
    3ed5: 00 00                        	addb	%al, (%rax)
    3ed7: 00 09                        	addb	%cl, (%rcx)
    3ed9: 00 00                        	addb	%al, (%rax)
    3edb: 00 00                        	addb	%al, (%rax)
    3edd: 00 00                        	addb	%al, (%rax)
    3edf: 00 18                        	addb	%bl, (%rax)
    3ee1: 00 00                        	addb	%al, (%rax)
    3ee3: 00 00                        	addb	%al, (%rax)
    3ee5: 00 00                        	addb	%al, (%rax)
    3ee7: 00 1e                        	addb	%bl, (%rsi)
    3ee9: 00 00                        	addb	%al, (%rax)
    3eeb: 00 00                        	addb	%al, (%rax)
    3eed: 00 00                        	addb	%al, (%rax)
    3eef: 00 08                        	addb	%cl, (%rax)
    3ef1: 00 00                        	addb	%al, (%rax)
    3ef3: 00 00                        	addb	%al, (%rax)
    3ef5: 00 00                        	addb	%al, (%rax)
    3ef7: 00 fb                        	addb	%bh, %bl
    3ef9: ff ff                        	<unknown>
    3efb: 6f                           	outsl	(%rsi), %dx
    3efc: 00 00                        	addb	%al, (%rax)
    3efe: 00 00                        	addb	%al, (%rax)
    3f00: 01 00                        	addl	%eax, (%rax)
    3f02: 00 08                        	addb	%cl, (%rax)
    3f04: 00 00                        	addb	%al, (%rax)
    3f06: 00 00                        	addb	%al, (%rax)
    3f08: fe ff                        	<unknown>
    3f0a: ff 6f 00                     	ljmpl	*(%rdi)
    3f0d: 00 00                        	addb	%al, (%rax)
    3f0f: 00 c8                        	addb	%cl, %al
    3f11: 05 00 00 00 00               	addl	$0x0, %eax
    3f16: 00 00                        	addb	%al, (%rax)
    3f18: ff ff                        	<unknown>
    3f1a: ff 6f 00                     	ljmpl	*(%rdi)
    3f1d: 00 00                        	addb	%al, (%rax)
    3f1f: 00 01                        	addb	%al, (%rcx)
    3f21: 00 00                        	addb	%al, (%rax)
    3f23: 00 00                        	addb	%al, (%rax)
    3f25: 00 00                        	addb	%al, (%rax)
    3f27: 00 f0                        	addb	%dh, %al
    3f29: ff ff                        	<unknown>
    3f2b: 6f                           	outsl	(%rsi), %dx
    3f2c: 00 00                        	addb	%al, (%rax)
    3f2e: 00 00                        	addb	%al, (%rax)
    3f30: b0 05                        	movb	$0x5, %al
    3f32: 00 00                        	addb	%al, (%rax)
    3f34: 00 00                        	addb	%al, (%rax)
    3f36: 00 00                        	addb	%al, (%rax)
    3f38: f9                           	stc
    3f39: ff ff                        	<unknown>
    3f3b: 6f                           	outsl	(%rsi), %dx
    3f3c: 00 00                        	addb	%al, (%rax)
    3f3e: 00 00                        	addb	%al, (%rax)
    3f40: 03 00                        	addl	(%rax), %eax
		...
    3f96: 00 00                        	addb	%al, (%rax)

Disassembly of section .got:

0000000000003f98 <_GLOBAL_OFFSET_TABLE_>:
    3f98: a8 3d                        	testb	$0x3d, %al
		...
    3fae: 00 00                        	addb	%al, (%rax)
    3fb0: 30 10                        	xorb	%dl, (%rax)
    3fb2: 00 00                        	addb	%al, (%rax)
    3fb4: 00 00                        	addb	%al, (%rax)
    3fb6: 00 00                        	addb	%al, (%rax)
    3fb8: 40 10 00                     	adcb	%al, (%rax)
    3fbb: 00 00                        	addb	%al, (%rax)
    3fbd: 00 00                        	addb	%al, (%rax)
    3fbf: 00 50 10                     	addb	%dl, 0x10(%rax)
    3fc2: 00 00                        	addb	%al, (%rax)
    3fc4: 00 00                        	addb	%al, (%rax)
    3fc6: 00 00                        	addb	%al, (%rax)
    3fc8: 60                           	<unknown>
    3fc9: 10 00                        	adcb	%al, (%rax)
    3fcb: 00 00                        	addb	%al, (%rax)
    3fcd: 00 00                        	addb	%al, (%rax)
    3fcf: 00 70 10                     	addb	%dh, 0x10(%rax)
		...
    3ffe: 00 00                        	addb	%al, (%rax)

Disassembly of section .data:

0000000000004000 <data_start>:
		...

0000000000004008 <__dso_handle>:
    4008: 08 40 00                     	orb	%al, (%rax)
    400b: 00 00                        	addb	%al, (%rax)
    400d: 00 00                        	addb	%al, (%rax)
    400f: 00                           	<unknown>

Disassembly of section .bss:

0000000000004010 <completed.0>:
...

Disassembly of section .comment:

0000000000000000 <.comment>:
       0: 47 43                        	<unknown>
       2: 43 3a 20                     	cmpb	(%r8), %spl
       5: 28 55 62                     	subb	%dl, 0x62(%rbp)
       8: 75 6e                        	jne	0x78 <.comment+0x78>
       a: 74 75                        	je	0x81 <.comment+0x81>
       c: 20 31                        	andb	%dh, (%rcx)
       e: 33 2e                        	xorl	(%rsi), %ebp
      10: 33 2e                        	xorl	(%rsi), %ebp
      12: 30 2d 36 75 62 75            	xorb	%ch, 0x75627536(%rip)   # 0x7562754e <_end+0x75623536>
      18: 6e                           	outsb	(%rsi), %dx
      19: 74 75                        	je	0x90 <.comment+0x90>
      1b: 32 7e 32                     	xorb	0x32(%rsi), %bh
      1e: 34 2e                        	xorb	$0x2e, %al
      20: 30 34 29                     	xorb	%dh, (%rcx,%rbp)
      23: 20 31                        	andb	%dh, (%rcx)
      25: 33 2e                        	xorl	(%rsi), %ebp
      27: 33 2e                        	xorl	(%rsi), %ebp
      29: 30 00                        	xorb	%al, (%rax)

Disassembly of section .symtab:

0000000000000000 <.symtab>:
		...
      18: 01 00                        	addl	%eax, (%rax)
      1a: 00 00                        	addb	%al, (%rax)
      1c: 04 00                        	addb	$0x0, %al
      1e: f1                           	<unknown>
      1f: ff 00                        	incl	(%rax)
		...
      2d: 00 00                        	addb	%al, (%rax)
      2f: 00 09                        	addb	%cl, (%rcx)
      31: 00 00                        	addb	%al, (%rax)
      33: 00 01                        	addb	%al, (%rcx)
      35: 00 04 00                     	addb	%al, (%rax,%rax)
      38: 8c 03                        	movw	%es, (%rbx)
      3a: 00 00                        	addb	%al, (%rax)
      3c: 00 00                        	addb	%al, (%rax)
      3e: 00 00                        	addb	%al, (%rax)
      40: 20 00                        	andb	%al, (%rax)
      42: 00 00                        	addb	%al, (%rax)
      44: 00 00                        	addb	%al, (%rax)
      46: 00 00                        	addb	%al, (%rax)
      48: 13 00                        	adcl	(%rax), %eax
      4a: 00 00                        	addb	%al, (%rax)
      4c: 04 00                        	addb	$0x0, %al
      4e: f1                           	<unknown>
      4f: ff 00                        	incl	(%rax)
		...
      5d: 00 00                        	addb	%al, (%rax)
      5f: 00 1e                        	addb	%bl, (%rsi)
      61: 00 00                        	addb	%al, (%rax)
      63: 00 02                        	addb	%al, (%rdx)
      65: 00 10                        	addb	%dl, (%rax)
      67: 00 10                        	addb	%dl, (%rax)
      69: 11 00                        	adcl	%eax, (%rax)
		...
      77: 00 20                        	addb	%ah, (%rax)
      79: 00 00                        	addb	%al, (%rax)
      7b: 00 02                        	addb	%al, (%rdx)
      7d: 00 10                        	addb	%dl, (%rax)
      7f: 00 40 11                     	addb	%al, 0x11(%rax)
		...
      8e: 00 00                        	addb	%al, (%rax)
      90: 33 00                        	xorl	(%rax), %eax
      92: 00 00                        	addb	%al, (%rax)
      94: 02 00                        	addb	(%rax), %al
      96: 10 00                        	adcb	%al, (%rax)
      98: 80 11 00                     	adcb	$0x0, (%rcx)
		...
      a7: 00 49 00                     	addb	%cl, (%rcx)
      aa: 00 00                        	addb	%al, (%rax)
      ac: 01 00                        	addl	%eax, (%rax)
      ae: 1a 00                        	sbbb	(%rax), %al
      b0: 10 40 00                     	adcb	%al, (%rax)
      b3: 00 00                        	addb	%al, (%rax)
      b5: 00 00                        	addb	%al, (%rax)
      b7: 00 01                        	addb	%al, (%rcx)
      b9: 00 00                        	addb	%al, (%rax)
      bb: 00 00                        	addb	%al, (%rax)
      bd: 00 00                        	addb	%al, (%rax)
      bf: 00 55 00                     	addb	%dl, (%rbp)
      c2: 00 00                        	addb	%al, (%rax)
      c4: 01 00                        	addl	%eax, (%rax)
      c6: 16                           	<unknown>
      c7: 00 a0 3d 00 00 00            	addb	%ah, 0x3d(%rax)
		...
      d5: 00 00                        	addb	%al, (%rax)
      d7: 00 7c 00 00                  	addb	%bh, (%rax,%rax)
      db: 00 02                        	addb	%al, (%rdx)
      dd: 00 10                        	addb	%dl, (%rax)
      df: 00 c0                        	addb	%al, %al
      e1: 11 00                        	adcl	%eax, (%rax)
		...
      ef: 00 88 00 00 00 01            	addb	%cl, 0x1000000(%rax)
      f5: 00 15 00 98 3d 00            	addb	%dl, 0x3d9800(%rip)     # 0x3d98fb <_end+0x3d58e3>
		...
     107: 00 a7 00 00 00 04            	addb	%ah, 0x4000000(%rdi)
     10d: 00 f1                        	addb	%dh, %cl
     10f: ff 00                        	incl	(%rax)
		...
     11d: 00 00                        	addb	%al, (%rax)
     11f: 00 13                        	addb	%dl, (%rbx)
     121: 00 00                        	addb	%al, (%rax)
     123: 00 04 00                     	addb	%al, (%rax,%rax)
     126: f1                           	<unknown>
     127: ff 00                        	incl	(%rax)
		...
     135: 00 00                        	addb	%al, (%rax)
     137: 00 af 00 00 00 01            	addb	%ch, 0x1000000(%rdi)
     13d: 00 14 00                     	addb	%dl, (%rax,%rax)
     140: e4 22                        	inb	$0x22, %al
		...
     152: 00 00                        	addb	%al, (%rax)
     154: 04 00                        	addb	$0x0, %al
     156: f1                           	<unknown>
     157: ff 00                        	incl	(%rax)
		...
     165: 00 00                        	addb	%al, (%rax)
     167: 00 bd 00 00 00 01            	addb	%bh, 0x1000000(%rbp)
     16d: 00 17                        	addb	%dl, (%rdi)
     16f: 00 a8 3d 00 00 00            	addb	%ch, 0x3d(%rax)
		...
     17d: 00 00                        	addb	%al, (%rax)
     17f: 00 c6                        	addb	%al, %dh
     181: 00 00                        	addb	%al, (%rax)
     183: 00 00                        	addb	%al, (%rax)
     185: 00 13                        	addb	%dl, (%rbx)
     187: 00 00                        	addb	%al, (%rax)
     189: 22 00                        	andb	(%rax), %al
		...
     197: 00 d9                        	addb	%bl, %cl
     199: 00 00                        	addb	%al, (%rax)
     19b: 00 01                        	addb	%al, (%rcx)
     19d: 00 18                        	addb	%bl, (%rax)
     19f: 00 98 3f 00 00 00            	addb	%bl, 0x3f(%rax)
		...
     1ad: 00 00                        	addb	%al, (%rax)
     1af: 00 ef                        	addb	%ch, %bh
     1b1: 00 00                        	addb	%al, (%rax)
     1b3: 00 12                        	addb	%dl, (%rdx)
		...
     1c5: 00 00                        	addb	%al, (%rax)
     1c7: 00 0c 01                     	addb	%cl, (%rcx,%rax)
     1ca: 00 00                        	addb	%al, (%rax)
     1cc: 20 00                        	andb	%al, (%rax)
		...
     1de: 00 00                        	addb	%al, (%rax)
     1e0: 89 01                        	movl	%eax, (%rcx)
     1e2: 00 00                        	addb	%al, (%rax)
     1e4: 20 00                        	andb	%al, (%rax)
     1e6: 19 00                        	sbbl	%eax, (%rax)
     1e8: 00 40 00                     	addb	%al, (%rax)
		...
     1f7: 00 28                        	addb	%ch, (%rax)
     1f9: 01 00                        	addl	%eax, (%rax)
     1fb: 00 12                        	addb	%dl, (%rdx)
		...
     20d: 00 00                        	addb	%al, (%rax)
     20f: 00 39                        	addb	%bh, (%rcx)
     211: 01 00                        	addl	%eax, (%rax)
     213: 00 10                        	addb	%dl, (%rax)
     215: 00 19                        	addb	%bl, (%rcx)
     217: 00 10                        	addb	%dl, (%rax)
     219: 40 00 00                     	addb	%al, (%rax)
		...
     228: 40 01 00                     	addl	%eax, (%rax)
     22b: 00 12                        	addb	%dl, (%rdx)
     22d: 02 11                        	addb	(%rcx), %dl
     22f: 00 18                        	addb	%bl, (%rax)
     231: 14 00                        	adcb	$0x0, %al
		...
     23f: 00 46 01                     	addb	%al, 0x1(%rsi)
     242: 00 00                        	addb	%al, (%rax)
     244: 12 00                        	adcb	(%rax), %al
		...
     256: 00 00                        	addb	%al, (%rax)
     258: 59                           	popq	%rcx
     259: 01 00                        	addl	%eax, (%rax)
     25b: 00 12                        	addb	%dl, (%rdx)
		...
     26d: 00 00                        	addb	%al, (%rax)
     26f: 00 74 01 00                  	addb	%dh, (%rcx,%rax)
     273: 00 12                        	addb	%dl, (%rdx)
		...
     285: 00 00                        	addb	%al, (%rax)
     287: 00 87 01 00 00 10            	addb	%al, 0x10000001(%rdi)
     28d: 00 19                        	addb	%bl, (%rcx)
     28f: 00 00                        	addb	%al, (%rax)
     291: 40 00 00                     	addb	%al, (%rax)
		...
     2a0: 94                           	xchgl	%esp, %eax
     2a1: 01 00                        	addl	%eax, (%rax)
     2a3: 00 11                        	addb	%dl, (%rcx)
     2a5: 00 12                        	addb	%dl, (%rdx)
     2a7: 00 20                        	addb	%ah, (%rax)
     2a9: 20 00                        	andb	%al, (%rax)
     2ab: 00 00                        	addb	%al, (%rax)
     2ad: 00 00                        	addb	%al, (%rax)
     2af: 00 c1                        	addb	%al, %cl
     2b1: 01 00                        	addl	%eax, (%rax)
     2b3: 00 00                        	addb	%al, (%rax)
     2b5: 00 00                        	addb	%al, (%rax)
     2b7: 00 9b 01 00 00 20            	addb	%bl, 0x20000001(%rbx)
		...
     2cd: 00 00                        	addb	%al, (%rax)
     2cf: 00 aa 01 00 00 11            	addb	%ch, 0x11000001(%rdx)
     2d5: 02 19                        	addb	(%rcx), %bl
     2d7: 00 08                        	addb	%cl, (%rax)
     2d9: 40 00 00                     	addb	%al, (%rax)
		...
     2e8: b7 01                        	movb	$0x1, %bh
     2ea: 00 00                        	addb	%al, (%rax)
     2ec: 11 00                        	adcl	%eax, (%rax)
     2ee: 12 00                        	adcb	(%rax), %al
     2f0: 00 20                        	addb	%ah, (%rax)
     2f2: 00 00                        	addb	%al, (%rax)
     2f4: 00 00                        	addb	%al, (%rax)
     2f6: 00 00                        	addb	%al, (%rax)
     2f8: 04 00                        	addb	$0x0, %al
     2fa: 00 00                        	addb	%al, (%rax)
     2fc: 00 00                        	addb	%al, (%rax)
     2fe: 00 00                        	addb	%al, (%rax)
     300: c6 01 00                     	movb	$0x0, (%rcx)
     303: 00 10                        	addb	%dl, (%rax)
     305: 00 1a                        	addb	%bl, (%rdx)
     307: 00 18                        	addb	%bl, (%rax)
     309: 40 00 00                     	addb	%al, (%rax)
		...
     318: 8d 01                        	leal	(%rcx), %eax
     31a: 00 00                        	addb	%al, (%rax)
     31c: 12 00                        	adcb	(%rax), %al
     31e: 10 00                        	adcb	%al, (%rax)
     320: e0 10                        	loopne	0x332 <.interp+0x1a>
     322: 00 00                        	addb	%al, (%rax)
     324: 00 00                        	addb	%al, (%rax)
     326: 00 00                        	addb	%al, (%rax)
     328: 26 00 00                     	addb	%al, %es:(%rax)
     32b: 00 00                        	addb	%al, (%rax)
     32d: 00 00                        	addb	%al, (%rax)
     32f: 00 cb                        	addb	%cl, %bl
     331: 01 00                        	addl	%eax, (%rax)
     333: 00 10                        	addb	%dl, (%rax)
     335: 00 1a                        	addb	%bl, (%rdx)
     337: 00 10                        	addb	%dl, (%rax)
     339: 40 00 00                     	addb	%al, (%rax)
		...
     348: d7                           	xlatb
     349: 01 00                        	addl	%eax, (%rax)
     34b: 00 12                        	addb	%dl, (%rdx)
     34d: 00 10                        	addb	%dl, (%rax)
     34f: 00 c9                        	addb	%cl, %cl
     351: 11 00                        	adcl	%eax, (%rax)
     353: 00 00                        	addb	%al, (%rax)
     355: 00 00                        	addb	%al, (%rax)
     357: 00 4c 02 00                  	addb	%cl, (%rdx,%rax)
     35b: 00 00                        	addb	%al, (%rax)
     35d: 00 00                        	addb	%al, (%rax)
     35f: 00 dc                        	addb	%bl, %ah
     361: 01 00                        	addl	%eax, (%rax)
     363: 00 12                        	addb	%dl, (%rdx)
		...
     375: 00 00                        	addb	%al, (%rax)
     377: 00 f5                        	addb	%dh, %ch
     379: 01 00                        	addl	%eax, (%rax)
     37b: 00 11                        	addb	%dl, (%rcx)
     37d: 02 19                        	addb	(%rcx), %bl
     37f: 00 10                        	addb	%dl, (%rax)
     381: 40 00 00                     	addb	%al, (%rax)
		...
     390: 01 02                        	addl	%eax, (%rdx)
     392: 00 00                        	addb	%al, (%rax)
     394: 20 00                        	andb	%al, (%rax)
		...
     3a6: 00 00                        	addb	%al, (%rax)
     3a8: 1b 02                        	sbbl	(%rdx), %eax
     3aa: 00 00                        	addb	%al, (%rax)
     3ac: 22 00                        	andb	(%rax), %al
		...
     3be: 00 00                        	addb	%al, (%rax)
     3c0: 36 02 00                     	addb	%ss:(%rax), %al
     3c3: 00 12                        	addb	%dl, (%rdx)
     3c5: 02 0c 00                     	addb	(%rax,%rax), %cl
     3c8: 00 10                        	addb	%dl, (%rax)
		...
     3d6: 00 00                        	addb	%al, (%rax)

Disassembly of section .strtab:

0000000000000000 <.strtab>:
       0: 00 53 63                     	addb	%dl, 0x63(%rbx)
       3: 72 74                        	jb	0x79 <.symtab+0x79>
       5: 31 2e                        	xorl	%ebp, (%rsi)
       7: 6f                           	outsl	(%rsi), %dx
       8: 00 5f 5f                     	addb	%bl, 0x5f(%rdi)
       b: 61                           	<unknown>
       c: 62                           	<unknown>
       d: 69 5f 74 61 67 00 63         	imull	$0x63006761, 0x74(%rdi), %ebx # imm = 0x63006761
      14: 72 74                        	jb	0x8a <.symtab+0x8a>
      16: 73 74                        	jae	0x8c <.symtab+0x8c>
      18: 75 66                        	jne	0x80 <.symtab+0x80>
      1a: 66 2e 63 00                  	movslq	%cs:(%rax), %ax
      1e: 64 65 72 65                  	jb	0x87 <.symtab+0x87>
      22: 67 69 73 74 65 72 5f 74      	imull	$0x745f7265, 0x74(%ebx), %esi # imm = 0x745F7265
      2a: 6d                           	insl	%dx, %es:(%rdi)
      2b: 5f                           	popq	%rdi
      2c: 63 6c 6f 6e                  	movslq	0x6e(%rdi,%rbp,2), %ebp
      30: 65 73 00                     	jae	0x33 <.symtab+0x33>
      33: 5f                           	popq	%rdi
      34: 5f                           	popq	%rdi
      35: 64 6f                        	outsl	%fs:(%rsi), %dx
      37: 5f                           	popq	%rdi
      38: 67 6c                        	insb	%dx, %es:(%edi)
      3a: 6f                           	outsl	(%rsi), %dx
      3b: 62 61 6c 5f 64               	<unknown>
      40: 74 6f                        	je	0xb1 <.symtab+0xb1>
      42: 72 73                        	jb	0xb7 <.symtab+0xb7>
      44: 5f                           	popq	%rdi
      45: 61                           	<unknown>
      46: 75 78                        	jne	0xc0 <.symtab+0xc0>
      48: 00 63 6f                     	addb	%ah, 0x6f(%rbx)
      4b: 6d                           	insl	%dx, %es:(%rdi)
      4c: 70 6c                        	jo	0xba <.symtab+0xba>
      4e: 65 74 65                     	je	0xb6 <.symtab+0xb6>
      51: 64 2e 30 00                  	xorb	%al, %cs:(%rax)
      55: 5f                           	popq	%rdi
      56: 5f                           	popq	%rdi
      57: 64 6f                        	outsl	%fs:(%rsi), %dx
      59: 5f                           	popq	%rdi
      5a: 67 6c                        	insb	%dx, %es:(%edi)
      5c: 6f                           	outsl	(%rsi), %dx
      5d: 62 61 6c 5f 64               	<unknown>
      62: 74 6f                        	je	0xd3 <.symtab+0xd3>
      64: 72 73                        	jb	0xd9 <.symtab+0xd9>
      66: 5f                           	popq	%rdi
      67: 61                           	<unknown>
      68: 75 78                        	jne	0xe2 <.symtab+0xe2>
      6a: 5f                           	popq	%rdi
      6b: 66 69 6e 69 5f 61            	imulw	$0x615f, 0x69(%rsi), %bp # imm = 0x615F
      71: 72 72                        	jb	0xe5 <.symtab+0xe5>
      73: 61                           	<unknown>
      74: 79 5f                        	jns	0xd5 <.symtab+0xd5>
      76: 65 6e                        	outsb	%gs:(%rsi), %dx
      78: 74 72                        	je	0xec <.symtab+0xec>
      7a: 79 00                        	jns	0x7c <.symtab+0x7c>
      7c: 66 72 61                     	jb	0xe0 <.symtab+0xe0>
      7f: 6d                           	insl	%dx, %es:(%rdi)
      80: 65 5f                        	popq	%rdi
      82: 64 75 6d                     	jne	0xf2 <.symtab+0xf2>
      85: 6d                           	insl	%dx, %es:(%rdi)
      86: 79 00                        	jns	0x88 <.symtab+0x88>
      88: 5f                           	popq	%rdi
      89: 5f                           	popq	%rdi
      8a: 66 72 61                     	jb	0xee <.symtab+0xee>
      8d: 6d                           	insl	%dx, %es:(%rdi)
      8e: 65 5f                        	popq	%rdi
      90: 64 75 6d                     	jne	0x100 <.symtab+0x100>
      93: 6d                           	insl	%dx, %es:(%rdi)
      94: 79 5f                        	jns	0xf5 <.symtab+0xf5>
      96: 69 6e 69 74 5f 61 72         	imull	$0x72615f74, 0x69(%rsi), %ebp # imm = 0x72615F74
      9d: 72 61                        	jb	0x100 <.symtab+0x100>
      9f: 79 5f                        	jns	0x100 <.symtab+0x100>
      a1: 65 6e                        	outsb	%gs:(%rsi), %dx
      a3: 74 72                        	je	0x117 <.symtab+0x117>
      a5: 79 00                        	jns	0xa7 <.symtab+0xa7>
      a7: 63 68 61                     	movslq	0x61(%rax), %ebp
      aa: 6c                           	insb	%dx, %es:(%rdi)
      ab: 6c                           	insb	%dx, %es:(%rdi)
      ac: 2e 63 00                     	movslq	%cs:(%rax), %eax
      af: 5f                           	popq	%rdi
      b0: 5f                           	popq	%rdi
      b1: 46 52                        	pushq	%rdx
      b3: 41 4d                        	<unknown>
      b5: 45 5f                        	popq	%r15
      b7: 45 4e                        	<unknown>
      b9: 44 5f                        	popq	%rdi
      bb: 5f                           	popq	%rdi
      bc: 00 5f 44                     	addb	%bl, 0x44(%rdi)
      bf: 59                           	popq	%rcx
      c0: 4e 41                        	<unknown>
      c2: 4d 49                        	<unknown>
      c4: 43 00 5f 5f                  	addb	%bl, 0x5f(%r15)
      c8: 47 4e                        	<unknown>
      ca: 55                           	pushq	%rbp
      cb: 5f                           	popq	%rdi
      cc: 45 48                        	rex64
      ce: 5f                           	popq	%rdi
      cf: 46 52                        	pushq	%rdx
      d1: 41 4d                        	<unknown>
      d3: 45 5f                        	popq	%r15
      d5: 48 44                        	<unknown>
      d7: 52                           	pushq	%rdx
      d8: 00 5f 47                     	addb	%bl, 0x47(%rdi)
      db: 4c 4f                        	<unknown>
      dd: 42 41                        	<unknown>
      df: 4c 5f                        	popq	%rdi
      e1: 4f 46                        	<unknown>
      e3: 46 53                        	pushq	%rbx
      e5: 45 54                        	pushq	%r12
      e7: 5f                           	popq	%rdi
      e8: 54                           	pushq	%rsp
      e9: 41 42                        	<unknown>
      eb: 4c 45                        	<unknown>
      ed: 5f                           	popq	%rdi
      ee: 00 5f 5f                     	addb	%bl, 0x5f(%rdi)
      f1: 6c                           	insb	%dx, %es:(%rdi)
      f2: 69 62 63 5f 73 74 61         	imull	$0x6174735f, 0x63(%rdx), %esp # imm = 0x6174735F
      f9: 72 74                        	jb	0x16f <.symtab+0x16f>
      fb: 5f                           	popq	%rdi
      fc: 6d                           	insl	%dx, %es:(%rdi)
      fd: 61                           	<unknown>
      fe: 69 6e 40 47 4c 49 42         	imull	$0x42494c47, 0x40(%rsi), %ebp # imm = 0x42494C47
     105: 43 5f                        	popq	%r15
     107: 32 2e                        	xorb	(%rsi), %ch
     109: 33 34 00                     	xorl	(%rax,%rax), %esi
     10c: 5f                           	popq	%rdi
     10d: 49 54                        	pushq	%r12
     10f: 4d 5f                        	popq	%r15
     111: 64 65 72 65                  	jb	0x17a <.symtab+0x17a>
     115: 67 69 73 74 65 72 54 4d      	imull	$0x4d547265, 0x74(%ebx), %esi # imm = 0x4D547265
     11d: 43 6c                        	insb	%dx, %es:(%rdi)
     11f: 6f                           	outsl	(%rsi), %dx
     120: 6e                           	outsb	(%rsi), %dx
     121: 65 54                        	pushq	%rsp
     123: 61                           	<unknown>
     124: 62                           	<unknown>
     125: 6c                           	insb	%dx, %es:(%rdi)
     126: 65 00 70 75                  	addb	%dh, %gs:0x75(%rax)
     12a: 74 73                        	je	0x19f <.symtab+0x19f>
     12c: 40 47                        	<unknown>
     12e: 4c 49                        	<unknown>
     130: 42 43                        	<unknown>
     132: 5f                           	popq	%rdi
     133: 32 2e                        	xorb	(%rsi), %ch
     135: 32 2e                        	xorb	(%rsi), %ch
     137: 35 00 5f 65 64               	xorl	$0x64655f00, %eax       # imm = 0x64655F00
     13c: 61                           	<unknown>
     13d: 74 61                        	je	0x1a0 <.symtab+0x1a0>
     13f: 00 5f 66                     	addb	%bl, 0x66(%rdi)
     142: 69 6e 69 00 73 74 72         	imull	$0x72747300, 0x69(%rsi), %ebp # imm = 0x72747300
     149: 6c                           	insb	%dx, %es:(%rdi)
     14a: 65 6e                        	outsb	%gs:(%rsi), %dx
     14c: 40 47                        	<unknown>
     14e: 4c 49                        	<unknown>
     150: 42 43                        	<unknown>
     152: 5f                           	popq	%rdi
     153: 32 2e                        	xorb	(%rsi), %ch
     155: 32 2e                        	xorb	(%rsi), %ch
     157: 35 00 5f 5f 73               	xorl	$0x735f5f00, %eax       # imm = 0x735F5F00
     15c: 74 61                        	je	0x1bf <.symtab+0x1bf>
     15e: 63 6b 5f                     	movslq	0x5f(%rbx), %ebp
     161: 63 68 6b                     	movslq	0x6b(%rax), %ebp
     164: 5f                           	popq	%rdi
     165: 66 61                        	<unknown>
     167: 69 6c 40 47 4c 49 42 43      	imull	$0x4342494c, 0x47(%rax,%rax,2), %ebp # imm = 0x4342494C
     16f: 5f                           	popq	%rdi
     170: 32 2e                        	xorb	(%rsi), %ch
     172: 34 00                        	xorb	$0x0, %al
     174: 70 72                        	jo	0x1e8 <.symtab+0x1e8>
     176: 69 6e 74 66 40 47 4c         	imull	$0x4c474066, 0x74(%rsi), %ebp # imm = 0x4C474066
     17d: 49 42                        	<unknown>
     17f: 43 5f                        	popq	%r15
     181: 32 2e                        	xorb	(%rsi), %ch
     183: 32 2e                        	xorb	(%rsi), %ch
     185: 35 00 5f 5f 64               	xorl	$0x645f5f00, %eax       # imm = 0x645F5F00
     18a: 61                           	<unknown>
     18b: 74 61                        	je	0x1ee <.symtab+0x1ee>
     18d: 5f                           	popq	%rdi
     18e: 73 74                        	jae	0x204 <.symtab+0x204>
     190: 61                           	<unknown>
     191: 72 74                        	jb	0x207 <.symtab+0x207>
     193: 00 74 61 72                  	addb	%dh, 0x72(%rcx,%riz,2)
     197: 67 65 74 00                  	addr32		je	0x19b <.symtab+0x19b>
     19b: 5f                           	popq	%rdi
     19c: 5f                           	popq	%rdi
     19d: 67 6d                        	insl	%dx, %es:(%edi)
     19f: 6f                           	outsl	(%rsi), %dx
     1a0: 6e                           	outsb	(%rsi), %dx
     1a1: 5f                           	popq	%rdi
     1a2: 73 74                        	jae	0x218 <.symtab+0x218>
     1a4: 61                           	<unknown>
     1a5: 72 74                        	jb	0x21b <.symtab+0x21b>
     1a7: 5f                           	popq	%rdi
     1a8: 5f                           	popq	%rdi
     1a9: 00 5f 5f                     	addb	%bl, 0x5f(%rdi)
     1ac: 64 73 6f                     	jae	0x21e <.symtab+0x21e>
     1af: 5f                           	popq	%rdi
     1b0: 68 61 6e 64 6c               	pushq	$0x6c646e61             # imm = 0x6C646E61
     1b5: 65 00 5f 49                  	addb	%bl, %gs:0x49(%rdi)
     1b9: 4f 5f                        	popq	%r15
     1bb: 73 74                        	jae	0x231 <.symtab+0x231>
     1bd: 64 69 6e 5f 75 73 65 64      	imull	$0x64657375, %fs:0x5f(%rsi), %ebp # imm = 0x64657375
     1c5: 00 5f 65                     	addb	%bl, 0x65(%rdi)
     1c8: 6e                           	outsb	(%rsi), %dx
     1c9: 64 00 5f 5f                  	addb	%bl, %fs:0x5f(%rdi)
     1cd: 62                           	<unknown>
     1ce: 73 73                        	jae	0x243 <.symtab+0x243>
     1d0: 5f                           	popq	%rdi
     1d1: 73 74                        	jae	0x247 <.symtab+0x247>
     1d3: 61                           	<unknown>
     1d4: 72 74                        	jb	0x24a <.symtab+0x24a>
     1d6: 00 6d 61                     	addb	%ch, 0x61(%rbp)
     1d9: 69 6e 00 5f 5f 69 73         	imull	$0x73695f5f, (%rsi), %ebp # imm = 0x73695F5F
     1e0: 6f                           	outsl	(%rsi), %dx
     1e1: 63 39                        	movslq	(%rcx), %edi
     1e3: 39 5f 73                     	cmpl	%ebx, 0x73(%rdi)
     1e6: 63 61 6e                     	movslq	0x6e(%rcx), %esp
     1e9: 66 40 47                     	<unknown>
     1ec: 4c 49                        	<unknown>
     1ee: 42 43                        	<unknown>
     1f0: 5f                           	popq	%rdi
     1f1: 32 2e                        	xorb	(%rsi), %ch
     1f3: 37                           	<unknown>
     1f4: 00 5f 5f                     	addb	%bl, 0x5f(%rdi)
     1f7: 54                           	pushq	%rsp
     1f8: 4d 43                        	<unknown>
     1fa: 5f                           	popq	%rdi
     1fb: 45 4e                        	<unknown>
     1fd: 44 5f                        	popq	%rdi
     1ff: 5f                           	popq	%rdi
     200: 00 5f 49                     	addb	%bl, 0x49(%rdi)
     203: 54                           	pushq	%rsp
     204: 4d 5f                        	popq	%r15
     206: 72 65                        	jb	0x26d <.symtab+0x26d>
     208: 67 69 73 74 65 72 54 4d      	imull	$0x4d547265, 0x74(%ebx), %esi # imm = 0x4D547265
     210: 43 6c                        	insb	%dx, %es:(%rdi)
     212: 6f                           	outsl	(%rsi), %dx
     213: 6e                           	outsb	(%rsi), %dx
     214: 65 54                        	pushq	%rsp
     216: 61                           	<unknown>
     217: 62                           	<unknown>
     218: 6c                           	insb	%dx, %es:(%rdi)
     219: 65 00 5f 5f                  	addb	%bl, %gs:0x5f(%rdi)
     21d: 63 78 61                     	movslq	0x61(%rax), %edi
     220: 5f                           	popq	%rdi
     221: 66 69 6e 61 6c 69            	imulw	$0x696c, 0x61(%rsi), %bp # imm = 0x696C
     227: 7a 65                        	jp	0x28e <.symtab+0x28e>
     229: 40 47                        	<unknown>
     22b: 4c 49                        	<unknown>
     22d: 42 43                        	<unknown>
     22f: 5f                           	popq	%rdi
     230: 32 2e                        	xorb	(%rsi), %ch
     232: 32 2e                        	xorb	(%rsi), %ch
     234: 35 00 5f 69 6e               	xorl	$0x6e695f00, %eax       # imm = 0x6E695F00
     239: 69 74 00                     	<unknown>

Disassembly of section .shstrtab:

0000000000000000 <.shstrtab>:
       0: 00 2e                        	addb	%ch, (%rsi)
       2: 73 79                        	jae	0x7d <.symtab+0x7d>
       4: 6d                           	insl	%dx, %es:(%rdi)
       5: 74 61                        	je	0x68 <.symtab+0x68>
       7: 62 00 2e 73                  	<unknown>
       b: 74 72                        	je	0x7f <.symtab+0x7f>
       d: 74 61                        	je	0x70 <.symtab+0x70>
       f: 62 00 2e 73                  	<unknown>
      13: 68 73 74 72 74               	pushq	$0x74727473             # imm = 0x74727473
      18: 61                           	<unknown>
      19: 62 00 2e 69                  	<unknown>
      1d: 6e                           	outsb	(%rsi), %dx
      1e: 74 65                        	je	0x85 <.symtab+0x85>
      20: 72 70                        	jb	0x92 <.symtab+0x92>
      22: 00 2e                        	addb	%ch, (%rsi)
      24: 6e                           	outsb	(%rsi), %dx
      25: 6f                           	outsl	(%rsi), %dx
      26: 74 65                        	je	0x8d <.symtab+0x8d>
      28: 2e 67 6e                     	outsb	%cs:(%esi), %dx
      2b: 75 2e                        	jne	0x5b <.symtab+0x5b>
      2d: 70 72                        	jo	0xa1 <.symtab+0xa1>
      2f: 6f                           	outsl	(%rsi), %dx
      30: 70 65                        	jo	0x97 <.symtab+0x97>
      32: 72 74                        	jb	0xa8 <.symtab+0xa8>
      34: 79 00                        	jns	0x36 <.symtab+0x36>
      36: 2e 6e                        	outsb	%cs:(%rsi), %dx
      38: 6f                           	outsl	(%rsi), %dx
      39: 74 65                        	je	0xa0 <.symtab+0xa0>
      3b: 2e 67 6e                     	outsb	%cs:(%esi), %dx
      3e: 75 2e                        	jne	0x6e <.symtab+0x6e>
      40: 62                           	<unknown>
      41: 75 69                        	jne	0xac <.symtab+0xac>
      43: 6c                           	insb	%dx, %es:(%rdi)
      44: 64 2d 69 64 00 2e            	subl	$0x2e006469, %eax       # imm = 0x2E006469
      4a: 6e                           	outsb	(%rsi), %dx
      4b: 6f                           	outsl	(%rsi), %dx
      4c: 74 65                        	je	0xb3 <.symtab+0xb3>
      4e: 2e 41 42                     	<unknown>
      51: 49 2d 74 61 67 00            	subq	$0x676174, %rax         # imm = 0x676174
      57: 2e 67 6e                     	outsb	%cs:(%esi), %dx
      5a: 75 2e                        	jne	0x8a <.symtab+0x8a>
      5c: 68 61 73 68 00               	pushq	$0x687361               # imm = 0x687361
      61: 2e 64 79 6e                  	jns	0xd3 <.symtab+0xd3>
      65: 73 79                        	jae	0xe0 <.symtab+0xe0>
      67: 6d                           	insl	%dx, %es:(%rdi)
      68: 00 2e                        	addb	%ch, (%rsi)
      6a: 64 79 6e                     	jns	0xdb <.symtab+0xdb>
      6d: 73 74                        	jae	0xe3 <.symtab+0xe3>
      6f: 72 00                        	jb	0x71 <.symtab+0x71>
      71: 2e 67 6e                     	outsb	%cs:(%esi), %dx
      74: 75 2e                        	jne	0xa4 <.symtab+0xa4>
      76: 76 65                        	jbe	0xdd <.symtab+0xdd>
      78: 72 73                        	jb	0xed <.symtab+0xed>
      7a: 69 6f 6e 00 2e 67 6e         	imull	$0x6e672e00, 0x6e(%rdi), %ebp # imm = 0x6E672E00
      81: 75 2e                        	jne	0xb1 <.symtab+0xb1>
      83: 76 65                        	jbe	0xea <.symtab+0xea>
      85: 72 73                        	jb	0xfa <.symtab+0xfa>
      87: 69 6f 6e 5f 72 00 2e         	imull	$0x2e00725f, 0x6e(%rdi), %ebp # imm = 0x2E00725F
      8e: 72 65                        	jb	0xf5 <.symtab+0xf5>
      90: 6c                           	insb	%dx, %es:(%rdi)
      91: 61                           	<unknown>
      92: 2e 64 79 6e                  	jns	0x104 <.symtab+0x104>
      96: 00 2e                        	addb	%ch, (%rsi)
      98: 72 65                        	jb	0xff <.symtab+0xff>
      9a: 6c                           	insb	%dx, %es:(%rdi)
      9b: 61                           	<unknown>
      9c: 2e 70 6c                     	jo	0x10b <.symtab+0x10b>
      9f: 74 00                        	je	0xa1 <.symtab+0xa1>
      a1: 2e 69 6e 69 74 00 2e 70      	imull	$0x702e0074, %cs:0x69(%rsi), %ebp # imm = 0x702E0074
      a9: 6c                           	insb	%dx, %es:(%rdi)
      aa: 74 2e                        	je	0xda <.symtab+0xda>
      ac: 67 6f                        	outsl	(%esi), %dx
      ae: 74 00                        	je	0xb0 <.symtab+0xb0>
      b0: 2e 70 6c                     	jo	0x11f <.symtab+0x11f>
      b3: 74 2e                        	je	0xe3 <.symtab+0xe3>
      b5: 73 65                        	jae	0x11c <.symtab+0x11c>
      b7: 63 00                        	movslq	(%rax), %eax
      b9: 2e 74 65                     	je	0x121 <.symtab+0x121>
      bc: 78 74                        	js	0x132 <.symtab+0x132>
      be: 00 2e                        	addb	%ch, (%rsi)
      c0: 66 69 6e 69 00 2e            	imulw	$0x2e00, 0x69(%rsi), %bp # imm = 0x2E00
      c6: 72 6f                        	jb	0x137 <.symtab+0x137>
      c8: 64 61                        	<unknown>
      ca: 74 61                        	je	0x12d <.symtab+0x12d>
      cc: 00 2e                        	addb	%ch, (%rsi)
      ce: 65 68 5f 66 72 61            	pushq	$0x6172665f             # imm = 0x6172665F
      d4: 6d                           	insl	%dx, %es:(%rdi)
      d5: 65 5f                        	popq	%rdi
      d7: 68 64 72 00 2e               	pushq	$0x2e007264             # imm = 0x2E007264
      dc: 65 68 5f 66 72 61            	pushq	$0x6172665f             # imm = 0x6172665F
      e2: 6d                           	insl	%dx, %es:(%rdi)
      e3: 65 00 2e                     	addb	%ch, %gs:(%rsi)
      e6: 69 6e 69 74 5f 61 72         	imull	$0x72615f74, 0x69(%rsi), %ebp # imm = 0x72615F74
      ed: 72 61                        	jb	0x150 <.symtab+0x150>
      ef: 79 00                        	jns	0xf1 <.symtab+0xf1>
      f1: 2e 66 69 6e 69 5f 61         	imulw	$0x615f, %cs:0x69(%rsi), %bp # imm = 0x615F
      f8: 72 72                        	jb	0x16c <.symtab+0x16c>
      fa: 61                           	<unknown>
      fb: 79 00                        	jns	0xfd <.symtab+0xfd>
      fd: 2e 64 79 6e                  	jns	0x16f <.symtab+0x16f>
     101: 61                           	<unknown>
     102: 6d                           	insl	%dx, %es:(%rdi)
     103: 69 63 00 2e 64 61 74         	imull	$0x7461642e, (%rbx), %esp # imm = 0x7461642E
     10a: 61                           	<unknown>
     10b: 00 2e                        	addb	%ch, (%rsi)
     10d: 62                           	<unknown>
     10e: 73 73                        	jae	0x183 <.symtab+0x183>
     110: 00 2e                        	addb	%ch, (%rsi)
     112: 63 6f 6d                     	movslq	0x6d(%rdi), %ebp
     115: 6d                           	insl	%dx, %es:(%rdi)
     116: 65 6e                        	outsb	%gs:(%rsi), %dx
     118: 74 00                        	je	0x11a <.symtab+0x11a>
=== OBJ_DUMP_END ===
